
K60_SmartCar.elf:     file format elf32-littlearm
K60_SmartCar.elf
architecture: arm, flags 0x00000112:
EXEC_P, HAS_SYMS, D_PAGED
start address 0x00002d59

Program Header:
    LOAD off    0x00008000 vaddr 0x00000000 paddr 0x00000000 align 2**15
         filesz 0x000001bc memsz 0x000001bc flags r--
    LOAD off    0x00008800 vaddr 0x00000800 paddr 0x00000800 align 2**15
         filesz 0x000031d8 memsz 0x000031d8 flags r-x
    LOAD off    0x00010000 vaddr 0x1fff0000 paddr 0x000039d8 align 2**15
         filesz 0x0000008c memsz 0x00000188 flags rw-
    LOAD off    0x00018000 vaddr 0x20000000 paddr 0x00003a64 align 2**15
         filesz 0x00000024 memsz 0x00000024 flags rw-
    LOAD off    0x00018188 vaddr 0x1fff0188 paddr 0x00003b60 align 2**15
         filesz 0x00000000 memsz 0x00001000 flags rw-
private flags = 5000002: [Version5 EABI] [has entry point]

Sections:
Idx Name          Size      VMA       LMA       File off  Algn  Flags
  0 .interrupts   000001bc  00000000  00000000  00008000  2**2  CONTENTS, ALLOC, LOAD, READONLY, DATA
  1 .text         000031d8  00000800  00000800  00008800  2**3  CONTENTS, ALLOC, LOAD, READONLY, CODE
  2 .data         0000008c  1fff0000  000039d8  00010000  2**2  CONTENTS, ALLOC, LOAD, DATA
  3 .bss          000000fc  1fff008c  00003a64  0001008c  2**2  ALLOC
  4 ._user_heap_stack 00001000  1fff0188  00003b60  00018188  2**0  ALLOC
  5 .romp         00000024  20000000  00003a64  00018000  2**0  CONTENTS, ALLOC, LOAD, DATA
  6 .ARM.attributes 00000033  00000000  00000000  00018024  2**0  CONTENTS, READONLY
  7 .debug_info   0000505a  00000000  00000000  00018057  2**0  CONTENTS, READONLY, DEBUGGING
  8 .debug_abbrev 000011e4  00000000  00000000  0001d0b1  2**0  CONTENTS, READONLY, DEBUGGING
  9 .debug_aranges 00000390  00000000  00000000  0001e295  2**0  CONTENTS, READONLY, DEBUGGING
 10 .debug_ranges 000002a0  00000000  00000000  0001e625  2**0  CONTENTS, READONLY, DEBUGGING
 11 .debug_macro  00034641  00000000  00000000  0001e8c5  2**0  CONTENTS, READONLY, DEBUGGING
 12 .debug_line   000035c6  00000000  00000000  00052f06  2**0  CONTENTS, READONLY, DEBUGGING
 13 .debug_str    000610f5  00000000  00000000  000564cc  2**0  CONTENTS, READONLY, DEBUGGING
 14 .comment      00000070  00000000  00000000  000b75c1  2**0  CONTENTS, READONLY
 15 .debug_frame  00000aa4  00000000  00000000  000b7634  2**2  CONTENTS, READONLY, DEBUGGING
SYMBOL TABLE:
00000000 l    d  .interrupts	00000000 .interrupts
00000800 l    d  .text	00000000 .text
1fff0000 l    d  .data	00000000 .data
1fff008c l    d  .bss	00000000 .bss
1fff0188 l    d  ._user_heap_stack	00000000 ._user_heap_stack
20000000 l    d  .romp	00000000 .romp
00000000 l    d  .ARM.attributes	00000000 .ARM.attributes
00000000 l    d  .debug_info	00000000 .debug_info
00000000 l    d  .debug_abbrev	00000000 .debug_abbrev
00000000 l    d  .debug_aranges	00000000 .debug_aranges
00000000 l    d  .debug_ranges	00000000 .debug_ranges
00000000 l    d  .debug_macro	00000000 .debug_macro
00000000 l    d  .debug_line	00000000 .debug_line
00000000 l    d  .debug_str	00000000 .debug_str
00000000 l    d  .comment	00000000 .comment
00000000 l    d  .debug_frame	00000000 .debug_frame
00000000 l    df *ABS*	00000000 vectors.c
00000000 l    df *ABS*	00000000 _arm_addsubdf3.o
00000000 l    df *ABS*	00000000 _arm_muldivdf3.o
00000000 l    df *ABS*	00000000 _arm_fixdfsi.o
00000000 l    df *ABS*	00000000 _arm_truncdfsf2.o
00000000 l    df *ABS*	00000000 _arm_addsubsf3.o
00000000 l    df *ABS*	00000000 _arm_muldivsf3.o
00000000 l    df *ABS*	00000000 _arm_fixsfsi.o
00000000 l    df *ABS*	00000000 _arm_cmpdf2.o
00000000 l    df *ABS*	00000000 isr.c
1fff008c l     O .bss	00000001 TimerCnt5ms.5622
1fff008d l     O .bss	00000001 TimerCnt10ms.5623
1fff008e l     O .bss	00000001 TimerCnt15ms.5624
1fff008f l     O .bss	00000001 TimerCnt20ms.5625
1fff0090 l     O .bss	00000002 TimerCnt100ms.5626
1fff0094 l     O .bss	00000004 TimerCnt1s.5627
00000000 l    df *ABS*	00000000 main.c
1fff0000 l     O .data	00000004 PI
00000000 l    df *ABS*	00000000 common.c
1fff0098 l     O .bss	00000004 int_disable_level
00000000 l    df *ABS*	00000000 motor.c
00000000 l    df *ABS*	00000000 light.c
00000000 l    df *ABS*	00000000 GyroAcce.c
1fff0004 l     O .data	00000004 PI
1fff009c l     O .bss	00000004 q_bias.5584
1fff0008 l     O .data	00000010 P.5581
1fff00a0 l     O .bss	00000010 Pdot.5582
1fff00b0 l     O .bss	00000004 angle_err.5585
1fff00b4 l     O .bss	00000004 PCt_0.5586
1fff00b8 l     O .bss	00000004 PCt_1.5587
1fff00bc l     O .bss	00000004 EE.5588
1fff00c0 l     O .bss	00000004 K_0.5589
1fff00c4 l     O .bss	00000004 K_1.5590
1fff00c8 l     O .bss	00000004 t_0.5591
1fff00cc l     O .bss	00000004 t_1.5592
00000000 l    df *ABS*	00000000 uart.c
00003980 l     O .text	00000018 UART_ARR
00003998 l     O .text	00000006 table_irq_uart
00000000 l    df *ABS*	00000000 pwm.c
00000000 l    df *ABS*	00000000 pit.c
00000000 l    df *ABS*	00000000 gpio.c
000039a0 l     O .text	00000014 PORT_ARR
000039b4 l     O .text	00000014 GPIO_ARR
00002770 l     F .text	0000002c gpio_port_pin_resolution
00000000 l    df *ABS*	00000000 adc.c
00000000 l    df *ABS*	00000000 startup.c
1fff00d0 l     O .bss	00000004 argv
00002b00 l     F .text	00000020 zero_fill_bss
00000000 l    df *ABS*	00000000 sysint.c
00000000 l    df *ABS*	00000000 arm_cm4.c
00000000 l    df *ABS*	00000000 w_asin.c
00000000 l    df *ABS*	00000000 e_asin.c
00000000 l    df *ABS*	00000000 e_sqrt.c
00000000 l    df *ABS*	00000000 s_fabs.c
00000000 l    df *ABS*	00000000 s_fpclassify.c
00000000 l    df *ABS*	00000000 s_matherr.c
00000000 l    df *ABS*	00000000 s_nan.c
00000000 l    df *ABS*	00000000 errno.c
00000000 l    df *ABS*	00000000 exit.c
00000000 l    df *ABS*	00000000 memset.c
00000000 l    df *ABS*	00000000 _exit.c
00000000 l    df *ABS*	00000000 impure.c
1fff0028 l     O .data	00000060 impure_data
00000000 l    df *ABS*	00000000 s_lib_ver.c
00000000 l    df *ABS*	00000000 
00000800 l       *ABS*	00000000 __stack_size
1fff0000 l       .data	00000000 _sdata
000039d8 l       .data	00000000 ___ROM_AT
00000800 l       *ABS*	00000000 __heap_size
20000000 l       *ABS*	00000000 __SP_INIT
20000000 l       .data	00000000 ___m_data2_RAMEnd
1fff008c l       .data	00000000 _edata
20000000 l       .data	00000000 ___m_data2_RAMStart
00001660 g     F .text	00000012 .hidden __aeabi_dcmple
0000159c g     F .text	0000007a .hidden __cmpdf2
000038d0 g     F .text	00000006 fabs
1fff00ec g     O .bss	00000004 Speed_I
00003188 g     F .text	0000000c default_isr
0000159c g     F .text	0000007a .hidden __eqdf2
1fff00f0 g     O .bss	00000001 TurnPriodCt
00000b14 g     F .text	0000005a .hidden __floatdidf
1fff00f1 g     O .bss	00000001 TIME0flag_5ms
1fff00f4 g     O .bss	00000004 Speed_P
1fff0188 g       ._user_heap_stack	00000000 __heap_addr
1fff00f8 g     O .bss	00000001 AAngPeriodCount
00001408 g     F .text	00000136 .hidden __divsf3
1fff00d4 g     O .bss	00000010 OutData
00001aac g     F .text	00000022 light_init
000039d8 g       .data	00000000 __exidx_end
00001540 g     F .text	0000004c .hidden __fixsfsi
00001a54 g     F .text	00000056 motor_init
1fff00fc g     O .bss	0000000c AAngleAcceleArry
0000158c g     F .text	0000008a .hidden __gtdf2
00003938 g     F .text	0000000c __errno
000022ac g     F .text	00000040 uart_enable_re_int
000039d8 g       .text	00000000 _etext
1fff0108 g     O .bss	00000001 AAngAcceCount
00001628 g     F .text	00000010 .hidden __aeabi_cdcmple
1fff010c g     O .bss	00000004 Angle_D
00001090 g     F .text	00000160 .hidden __aeabi_fadd
0000108c g     F .text	00000164 .hidden __subsf3
0000169c g     F .text	00000022 isr_uart5_re
00001618 g     F .text	00000020 .hidden __aeabi_cdrcmple
00000000 g     O .interrupts	000001bc InterruptVector
00000aa4 g     F .text	00000022 .hidden __floatsidf
00001594 g     F .text	00000082 .hidden __ltdf2
00003194 g     F .text	000000a4 enable_irq
000039d8 g       .data	00000000 __DTOR_END__
1fff0160 g     O .bss	00000004 SystemCoreClock
000038d8 g     F .text	00000050 __fpclassifyd
1fff008c g       .bss	00000000 __START_BSS
000011f8 g     F .text	0000001c .hidden __aeabi_i2f
00000a84 g     F .text	0000001e .hidden __aeabi_ui2d
1fff0110 g     O .bss	00000001 Runstop
00001ae8 g     F .text	0000000c GyroAcce_init
1fff0112 g     O .bss	00000002 SpeedAD
00000800 g     F .text	00000000 .hidden __aeabi_drsub
1fff00e4 g     O .bss	00000002 LeftSpeedC
0000164c g     F .text	00000012 .hidden __aeabi_dcmplt
00003a64 g       .data	00000000 ___m_data2_ROMStart
1fff00e6 g     O .bss	00000002 RightSpeedC
00000ac8 g     F .text	0000003a .hidden __extendsfdf2
00000dc4 g     F .text	000001d0 .hidden __aeabi_ddiv
00002d58 g     F .text	00000040 __thumb_startup
0000080c g     F .text	00000276 .hidden __adddf3
1fff0114 g     O .bss	00000002 RunCountLast
000039d8 g       .data	00000000 __exidx_start
00000b70 g     F .text	00000254 .hidden __aeabi_dmul
000016c0 g     F .text	00000120 pit0_isr
1fff0024 g     O .data	00000001 __fdlib_version
1fff0116 g     O .bss	00000001 run_flag
000039d4 g     O .text	00000004 _global_impure_ptr
00000a84 g     F .text	0000001e .hidden __floatunsidf
1fff0118 g     O .bss	00000002 SpeedPeriodCount
00002660 g     F .text	0000009c pit_init
00000fe4 g     F .text	0000009e .hidden __aeabi_d2f
0000108c g     F .text	00000164 .hidden __aeabi_fsub
00002d3c g     F .text	0000001c __init_hardware
1fff011a g     O .bss	00000002 AAngPWM
00000f94 g     F .text	0000004e .hidden __fixdfsi
00001224 g     F .text	0000007c .hidden __floatdisf
000022ec g     F .text	00000374 pwm_init
00001f28 g     F .text	000000e4 ADToGyroAccePHY
0000080c g     F .text	00000276 .hidden __aeabi_dadd
00001594 g     F .text	00000082 .hidden __ledf2
1fff011c g     O .bss	00000001 TIME0flag_15ms
00000b04 g     F .text	0000006a .hidden __aeabi_ul2d
00000000  w      *UND*	00000000 __sf_fake_stderr
00002b94 g     F .text	000000e2 __copy_rom_section
1fff011e g     O .bss	00000002 MotorAAngPWM
1fff0120 g     O .bss	00000001 TIME0flag_20ms
000017e0 g     F .text	00000094 PORTD_isr
00002964 g     F .text	000000d0 adc_once
000032e0 g     F .text	0000046c __ieee754_asin
000039d8 g       .data	00000000 __CTOR_LIST__
00001688 g     F .text	00000012 .hidden __aeabi_dcmpgt
00002010 g     F .text	000001c8 uart_init
00001674 g     F .text	00000012 .hidden __aeabi_dcmpge
00000000  w      *UND*	00000000 __call_exitprocs
00000000 g       *ABS*	00000000 ___m_data2_ROMSize
00000808 g     F .text	0000027a .hidden __aeabi_dsub
00000b04 g     F .text	0000006a .hidden __floatundidf
000011f8 g     F .text	0000001c .hidden __floatsisf
00000000 g       .interrupts	00000000 __vector_table
00001540 g     F .text	0000004c .hidden __aeabi_f2iz
1fff0122 g     O .bss	00000002 MotorSpeedPWMR
00001408 g     F .text	00000136 .hidden __aeabi_fdiv
00000aa4 g     F .text	00000022 .hidden __aeabi_i2d
000026fc g     F .text	00000074 enable_pit_int
00001214 g     F .text	0000008c .hidden __floatundisf
1fff0124 g     O .bss	00000002 PWMout
00000dc4 g     F .text	000001d0 .hidden __divdf3
1fff0128 g     O .bss	00000004 Speed_D
000011f0 g     F .text	00000024 .hidden __aeabi_ui2f
00002c78 g     F .text	000000c4 __copy_rom_sections_to_ram
00000b70 g     F .text	00000254 .hidden __muldf3
0000223c g     F .text	00000070 uart_re1
1fff012c g     O .bss	00000002 TIME0flag_100ms
00001af4 g     F .text	00000042 GyroAcce_getAD
00002ab0 g     F .text	00000050 adc_ave
00000000  w      *UND*	00000000 __sf_fake_stdin
1fff0164 g     O .bss	00000024 CPUInfo
00001ad0 g     F .text	00000018 light_change
0000396c g     F .text	00000010 memset
00001874 g     F .text	00000190 main
00001a28 g     F .text	0000002c exit_critical
00001224 g     F .text	0000007c .hidden __aeabi_l2f
00003928 g     F .text	00000004 matherr
1fff012e g     O .bss	00000002 RunCountLast1
00000fe4 g     F .text	0000009e .hidden __truncdfsf2
1fff0130 g     O .bss	00000002 AMotorTurnPWM
1fff00e8 g     O .bss	00000002 RunCount
00000b14 g     F .text	0000005a .hidden __aeabi_l2d
00002d98 g     F .text	000003f0 SystemClockSetup
1fff0132 g     O .bss	00000002 MotorSpeedPWM
00001214 g     F .text	0000008c .hidden __aeabi_ul2f
000039d8 g       .data	00000000 __CTOR_END__
000012a0 g     F .text	00000168 .hidden __mulsf3
000039d8 g       .data	00000000 __DTOR_LIST__
1fff0188 g       .bss	00000000 __END_BSS
1fff00ea g     O .bss	00000002 count
0000159c g     F .text	0000007a .hidden __nedf2
1fff0134 g     O .bss	00000002 LastAAngPWM
00003a64 g       .data	00000000 _romp_at
1fff0136 g     O .bss	00000001 TIME0flag_10ms
00003238 g     F .text	000000a8 asin
00001084 g     F .text	0000016c .hidden __aeabi_frsub
1fff0088 g     O .data	00000004 _impure_ptr
1fff0018 g     O .data	0000000c FTMx
00002904 g     F .text	00000060 adc_init
000012a0 g     F .text	00000168 .hidden __aeabi_fmul
1fff0137 g     O .bss	00000001 AInitC
0000392c g     F .text	0000000c nan
00003750 g     F .text	00000180 __ieee754_sqrt
20000000 g       *ABS*	00000000 _estack
00003a64 g       .data	00000000 __S_romp
00001638 g     F .text	00000012 .hidden __aeabi_dcmpeq
00002a34 g     F .text	0000007c adc_mid
1fff0138 g     O .bss	00000002 ATurnPWM
00002b20 g     F .text	00000028 gpio_io_init
00001a04 g     F .text	00000024 enter_critical
00003944 g     F .text	00000028 exit
000011f0 g     F .text	00000024 .hidden __floatunsisf
00000f94 g     F .text	0000004e .hidden __aeabi_d2iz
00000000  w      *UND*	00000000 __sf_fake_stdout
00002b48 g     F .text	00000038 wdog_disable1
0000397c g     F .text	00000002 _exit
00001628 g     F .text	00000010 .hidden __aeabi_cdcmpeq
0000158c g     F .text	0000008a .hidden __gedf2
000021d8 g     F .text	00000064 uart_send1
00002854 g     F .text	00000068 gpio_set
1fff013c g     O .bss	00000004 TIME0flag_1s
000028bc g     F .text	00000048 gpio_reverse
00000ac8 g     F .text	0000003a .hidden __aeabi_f2d
00002b80 g     F .text	00000014 __flush_cache
0000279c g     F .text	000000b8 gpio_init
1fff0140 g     O .bss	00000018 AAngleArrySCI
00000808 g     F .text	0000027a .hidden __subdf3
0000008c g       *ABS*	00000000 ___data_size
00001090 g     F .text	00000160 .hidden __addsf3
1fff0158 g     O .bss	00000002 ALastTurnPWM
1fff015c g     O .bss	00000004 Angle_P
00001b38 g     F .text	000003ec GyroAccePHYToAngle



Disassembly of section .text:

00000800 <__aeabi_drsub>:
$t():
     800:	f081 4100 	eor.w	r1, r1, #2147483648	; 0x80000000
     804:	e002      	b.n	80c <__adddf3>
     806:	bf00      	nop

00000808 <__aeabi_dsub>:
__aeabi_dsub():
     808:	f083 4300 	eor.w	r3, r3, #2147483648	; 0x80000000

0000080c <__adddf3>:
     80c:	b530      	push	{r4, r5, lr}
     80e:	ea4f 0441 	mov.w	r4, r1, lsl #1
     812:	ea4f 0543 	mov.w	r5, r3, lsl #1
     816:	ea94 0f05 	teq	r4, r5
     81a:	bf08      	it	eq
     81c:	ea90 0f02 	teqeq	r0, r2
     820:	bf1f      	itttt	ne
     822:	ea54 0c00 	orrsne.w	ip, r4, r0
     826:	ea55 0c02 	orrsne.w	ip, r5, r2
     82a:	ea7f 5c64 	mvnsne.w	ip, r4, asr #21
     82e:	ea7f 5c65 	mvnsne.w	ip, r5, asr #21
     832:	f000 80e2 	beq.w	9fa <__adddf3+0x1ee>
     836:	ea4f 5454 	mov.w	r4, r4, lsr #21
     83a:	ebd4 5555 	rsbs	r5, r4, r5, lsr #21
     83e:	bfb8      	it	lt
     840:	426d      	neglt	r5, r5
     842:	dd0c      	ble.n	85e <__adddf3+0x52>
     844:	442c      	add	r4, r5
     846:	ea80 0202 	eor.w	r2, r0, r2
     84a:	ea81 0303 	eor.w	r3, r1, r3
     84e:	ea82 0000 	eor.w	r0, r2, r0
     852:	ea83 0101 	eor.w	r1, r3, r1
     856:	ea80 0202 	eor.w	r2, r0, r2
     85a:	ea81 0303 	eor.w	r3, r1, r3
     85e:	2d36      	cmp	r5, #54	; 0x36
     860:	bf88      	it	hi
     862:	bd30      	pophi	{r4, r5, pc}
     864:	f011 4f00 	tst.w	r1, #2147483648	; 0x80000000
     868:	ea4f 3101 	mov.w	r1, r1, lsl #12
     86c:	f44f 1c80 	mov.w	ip, #1048576	; 0x100000
     870:	ea4c 3111 	orr.w	r1, ip, r1, lsr #12
     874:	d002      	beq.n	87c <__adddf3+0x70>
     876:	4240      	negs	r0, r0
     878:	eb61 0141 	sbc.w	r1, r1, r1, lsl #1
     87c:	f013 4f00 	tst.w	r3, #2147483648	; 0x80000000
     880:	ea4f 3303 	mov.w	r3, r3, lsl #12
     884:	ea4c 3313 	orr.w	r3, ip, r3, lsr #12
     888:	d002      	beq.n	890 <__adddf3+0x84>
     88a:	4252      	negs	r2, r2
     88c:	eb63 0343 	sbc.w	r3, r3, r3, lsl #1
     890:	ea94 0f05 	teq	r4, r5
     894:	f000 80a7 	beq.w	9e6 <__adddf3+0x1da>
     898:	f1a4 0401 	sub.w	r4, r4, #1
     89c:	f1d5 0e20 	rsbs	lr, r5, #32
     8a0:	db0d      	blt.n	8be <__adddf3+0xb2>
     8a2:	fa02 fc0e 	lsl.w	ip, r2, lr
     8a6:	fa22 f205 	lsr.w	r2, r2, r5
     8aa:	1880      	adds	r0, r0, r2
     8ac:	f141 0100 	adc.w	r1, r1, #0
     8b0:	fa03 f20e 	lsl.w	r2, r3, lr
     8b4:	1880      	adds	r0, r0, r2
     8b6:	fa43 f305 	asr.w	r3, r3, r5
     8ba:	4159      	adcs	r1, r3
     8bc:	e00e      	b.n	8dc <__adddf3+0xd0>
     8be:	f1a5 0520 	sub.w	r5, r5, #32
     8c2:	f10e 0e20 	add.w	lr, lr, #32
     8c6:	2a01      	cmp	r2, #1
     8c8:	fa03 fc0e 	lsl.w	ip, r3, lr
     8cc:	bf28      	it	cs
     8ce:	f04c 0c02 	orrcs.w	ip, ip, #2
     8d2:	fa43 f305 	asr.w	r3, r3, r5
     8d6:	18c0      	adds	r0, r0, r3
     8d8:	eb51 71e3 	adcs.w	r1, r1, r3, asr #31
     8dc:	f001 4500 	and.w	r5, r1, #2147483648	; 0x80000000
     8e0:	d507      	bpl.n	8f2 <__adddf3+0xe6>
     8e2:	f04f 0e00 	mov.w	lr, #0
     8e6:	f1dc 0c00 	rsbs	ip, ip, #0
     8ea:	eb7e 0000 	sbcs.w	r0, lr, r0
     8ee:	eb6e 0101 	sbc.w	r1, lr, r1
     8f2:	f5b1 1f80 	cmp.w	r1, #1048576	; 0x100000
     8f6:	d31b      	bcc.n	930 <__adddf3+0x124>
     8f8:	f5b1 1f00 	cmp.w	r1, #2097152	; 0x200000
     8fc:	d30c      	bcc.n	918 <__adddf3+0x10c>
     8fe:	0849      	lsrs	r1, r1, #1
     900:	ea5f 0030 	movs.w	r0, r0, rrx
     904:	ea4f 0c3c 	mov.w	ip, ip, rrx
     908:	f104 0401 	add.w	r4, r4, #1
     90c:	ea4f 5244 	mov.w	r2, r4, lsl #21
     910:	f512 0f80 	cmn.w	r2, #4194304	; 0x400000
     914:	f080 809a 	bcs.w	a4c <__adddf3+0x240>
     918:	f1bc 4f00 	cmp.w	ip, #2147483648	; 0x80000000
     91c:	bf08      	it	eq
     91e:	ea5f 0c50 	movseq.w	ip, r0, lsr #1
     922:	f150 0000 	adcs.w	r0, r0, #0
     926:	eb41 5104 	adc.w	r1, r1, r4, lsl #20
     92a:	ea41 0105 	orr.w	r1, r1, r5
     92e:	bd30      	pop	{r4, r5, pc}
     930:	ea5f 0c4c 	movs.w	ip, ip, lsl #1
     934:	4140      	adcs	r0, r0
     936:	eb41 0101 	adc.w	r1, r1, r1
     93a:	f411 1f80 	tst.w	r1, #1048576	; 0x100000
     93e:	f1a4 0401 	sub.w	r4, r4, #1
     942:	d1e9      	bne.n	918 <__adddf3+0x10c>
     944:	f091 0f00 	teq	r1, #0
     948:	bf04      	itt	eq
     94a:	4601      	moveq	r1, r0
     94c:	2000      	moveq	r0, #0
     94e:	fab1 f381 	clz	r3, r1
     952:	bf08      	it	eq
     954:	3320      	addeq	r3, #32
     956:	f1a3 030b 	sub.w	r3, r3, #11
     95a:	f1b3 0220 	subs.w	r2, r3, #32
     95e:	da0c      	bge.n	97a <__adddf3+0x16e>
     960:	320c      	adds	r2, #12
     962:	dd08      	ble.n	976 <__adddf3+0x16a>
     964:	f102 0c14 	add.w	ip, r2, #20
     968:	f1c2 020c 	rsb	r2, r2, #12
     96c:	fa01 f00c 	lsl.w	r0, r1, ip
     970:	fa21 f102 	lsr.w	r1, r1, r2
     974:	e00c      	b.n	990 <__adddf3+0x184>
     976:	f102 0214 	add.w	r2, r2, #20
     97a:	bfd8      	it	le
     97c:	f1c2 0c20 	rsble	ip, r2, #32
     980:	fa01 f102 	lsl.w	r1, r1, r2
     984:	fa20 fc0c 	lsr.w	ip, r0, ip
     988:	bfdc      	itt	le
     98a:	ea41 010c 	orrle.w	r1, r1, ip
     98e:	4090      	lslle	r0, r2
     990:	1ae4      	subs	r4, r4, r3
     992:	bfa2      	ittt	ge
     994:	eb01 5104 	addge.w	r1, r1, r4, lsl #20
     998:	4329      	orrge	r1, r5
     99a:	bd30      	popge	{r4, r5, pc}
     99c:	ea6f 0404 	mvn.w	r4, r4
     9a0:	3c1f      	subs	r4, #31
     9a2:	da1c      	bge.n	9de <__adddf3+0x1d2>
     9a4:	340c      	adds	r4, #12
     9a6:	dc0e      	bgt.n	9c6 <__adddf3+0x1ba>
     9a8:	f104 0414 	add.w	r4, r4, #20
     9ac:	f1c4 0220 	rsb	r2, r4, #32
     9b0:	fa20 f004 	lsr.w	r0, r0, r4
     9b4:	fa01 f302 	lsl.w	r3, r1, r2
     9b8:	ea40 0003 	orr.w	r0, r0, r3
     9bc:	fa21 f304 	lsr.w	r3, r1, r4
     9c0:	ea45 0103 	orr.w	r1, r5, r3
     9c4:	bd30      	pop	{r4, r5, pc}
     9c6:	f1c4 040c 	rsb	r4, r4, #12
     9ca:	f1c4 0220 	rsb	r2, r4, #32
     9ce:	fa20 f002 	lsr.w	r0, r0, r2
     9d2:	fa01 f304 	lsl.w	r3, r1, r4
     9d6:	ea40 0003 	orr.w	r0, r0, r3
     9da:	4629      	mov	r1, r5
     9dc:	bd30      	pop	{r4, r5, pc}
     9de:	fa21 f004 	lsr.w	r0, r1, r4
     9e2:	4629      	mov	r1, r5
     9e4:	bd30      	pop	{r4, r5, pc}
     9e6:	f094 0f00 	teq	r4, #0
     9ea:	f483 1380 	eor.w	r3, r3, #1048576	; 0x100000
     9ee:	bf06      	itte	eq
     9f0:	f481 1180 	eoreq.w	r1, r1, #1048576	; 0x100000
     9f4:	3401      	addeq	r4, #1
     9f6:	3d01      	subne	r5, #1
     9f8:	e74e      	b.n	898 <__adddf3+0x8c>
     9fa:	ea7f 5c64 	mvns.w	ip, r4, asr #21
     9fe:	bf18      	it	ne
     a00:	ea7f 5c65 	mvnsne.w	ip, r5, asr #21
     a04:	d029      	beq.n	a5a <__adddf3+0x24e>
     a06:	ea94 0f05 	teq	r4, r5
     a0a:	bf08      	it	eq
     a0c:	ea90 0f02 	teqeq	r0, r2
     a10:	d005      	beq.n	a1e <__adddf3+0x212>
     a12:	ea54 0c00 	orrs.w	ip, r4, r0
     a16:	bf04      	itt	eq
     a18:	4619      	moveq	r1, r3
     a1a:	4610      	moveq	r0, r2
     a1c:	bd30      	pop	{r4, r5, pc}
     a1e:	ea91 0f03 	teq	r1, r3
     a22:	bf1e      	ittt	ne
     a24:	2100      	movne	r1, #0
     a26:	2000      	movne	r0, #0
     a28:	bd30      	popne	{r4, r5, pc}
     a2a:	ea5f 5c54 	movs.w	ip, r4, lsr #21
     a2e:	d105      	bne.n	a3c <__adddf3+0x230>
     a30:	0040      	lsls	r0, r0, #1
     a32:	4149      	adcs	r1, r1
     a34:	bf28      	it	cs
     a36:	f041 4100 	orrcs.w	r1, r1, #2147483648	; 0x80000000
     a3a:	bd30      	pop	{r4, r5, pc}
     a3c:	f514 0480 	adds.w	r4, r4, #4194304	; 0x400000
     a40:	bf3c      	itt	cc
     a42:	f501 1180 	addcc.w	r1, r1, #1048576	; 0x100000
     a46:	bd30      	popcc	{r4, r5, pc}
     a48:	f001 4500 	and.w	r5, r1, #2147483648	; 0x80000000
     a4c:	f045 41fe 	orr.w	r1, r5, #2130706432	; 0x7f000000
     a50:	f441 0170 	orr.w	r1, r1, #15728640	; 0xf00000
     a54:	f04f 0000 	mov.w	r0, #0
     a58:	bd30      	pop	{r4, r5, pc}
     a5a:	ea7f 5c64 	mvns.w	ip, r4, asr #21
     a5e:	bf1a      	itte	ne
     a60:	4619      	movne	r1, r3
     a62:	4610      	movne	r0, r2
     a64:	ea7f 5c65 	mvnseq.w	ip, r5, asr #21
     a68:	bf1c      	itt	ne
     a6a:	460b      	movne	r3, r1
     a6c:	4602      	movne	r2, r0
     a6e:	ea50 3401 	orrs.w	r4, r0, r1, lsl #12
     a72:	bf06      	itte	eq
     a74:	ea52 3503 	orrseq.w	r5, r2, r3, lsl #12
     a78:	ea91 0f03 	teqeq	r1, r3
     a7c:	f441 2100 	orrne.w	r1, r1, #524288	; 0x80000
     a80:	bd30      	pop	{r4, r5, pc}
__adddf3():
     a82:	bf00      	nop

00000a84 <__aeabi_ui2d>:
__aeabi_ui2d():
     a84:	f090 0f00 	teq	r0, #0
     a88:	bf04      	itt	eq
     a8a:	2100      	moveq	r1, #0
     a8c:	4770      	bxeq	lr
     a8e:	b530      	push	{r4, r5, lr}
     a90:	f44f 6480 	mov.w	r4, #1024	; 0x400
     a94:	f104 0432 	add.w	r4, r4, #50	; 0x32
     a98:	f04f 0500 	mov.w	r5, #0
     a9c:	f04f 0100 	mov.w	r1, #0
     aa0:	e750      	b.n	944 <__adddf3+0x138>
     aa2:	bf00      	nop

00000aa4 <__aeabi_i2d>:
__floatsidf():
     aa4:	f090 0f00 	teq	r0, #0
     aa8:	bf04      	itt	eq
     aaa:	2100      	moveq	r1, #0
     aac:	4770      	bxeq	lr
     aae:	b530      	push	{r4, r5, lr}
     ab0:	f44f 6480 	mov.w	r4, #1024	; 0x400
     ab4:	f104 0432 	add.w	r4, r4, #50	; 0x32
     ab8:	f010 4500 	ands.w	r5, r0, #2147483648	; 0x80000000
     abc:	bf48      	it	mi
     abe:	4240      	negmi	r0, r0
     ac0:	f04f 0100 	mov.w	r1, #0
     ac4:	e73e      	b.n	944 <__adddf3+0x138>
     ac6:	bf00      	nop

00000ac8 <__aeabi_f2d>:
__extendsfdf2():
     ac8:	0042      	lsls	r2, r0, #1
     aca:	ea4f 01e2 	mov.w	r1, r2, asr #3
     ace:	ea4f 0131 	mov.w	r1, r1, rrx
     ad2:	ea4f 7002 	mov.w	r0, r2, lsl #28
     ad6:	bf1f      	itttt	ne
     ad8:	f012 437f 	andsne.w	r3, r2, #4278190080	; 0xff000000
     adc:	f093 4f7f 	teqne	r3, #4278190080	; 0xff000000
     ae0:	f081 5160 	eorne.w	r1, r1, #939524096	; 0x38000000
     ae4:	4770      	bxne	lr
     ae6:	f092 0f00 	teq	r2, #0
     aea:	bf14      	ite	ne
     aec:	f093 4f7f 	teqne	r3, #4278190080	; 0xff000000
     af0:	4770      	bxeq	lr
     af2:	b530      	push	{r4, r5, lr}
     af4:	f44f 7460 	mov.w	r4, #896	; 0x380
     af8:	f001 4500 	and.w	r5, r1, #2147483648	; 0x80000000
     afc:	f021 4100 	bic.w	r1, r1, #2147483648	; 0x80000000
     b00:	e720      	b.n	944 <__adddf3+0x138>
     b02:	bf00      	nop

00000b04 <__aeabi_ul2d>:
__aeabi_ul2d():
     b04:	ea50 0201 	orrs.w	r2, r0, r1
     b08:	bf08      	it	eq
     b0a:	4770      	bxeq	lr
     b0c:	b530      	push	{r4, r5, lr}
     b0e:	f04f 0500 	mov.w	r5, #0
     b12:	e00a      	b.n	b2a <__aeabi_l2d+0x16>

00000b14 <__aeabi_l2d>:
     b14:	ea50 0201 	orrs.w	r2, r0, r1
     b18:	bf08      	it	eq
     b1a:	4770      	bxeq	lr
     b1c:	b530      	push	{r4, r5, lr}
     b1e:	f011 4500 	ands.w	r5, r1, #2147483648	; 0x80000000
     b22:	d502      	bpl.n	b2a <__aeabi_l2d+0x16>
     b24:	4240      	negs	r0, r0
     b26:	eb61 0141 	sbc.w	r1, r1, r1, lsl #1
     b2a:	f44f 6480 	mov.w	r4, #1024	; 0x400
     b2e:	f104 0432 	add.w	r4, r4, #50	; 0x32
     b32:	ea5f 5c91 	movs.w	ip, r1, lsr #22
     b36:	f43f aedc 	beq.w	8f2 <__adddf3+0xe6>
     b3a:	f04f 0203 	mov.w	r2, #3
     b3e:	ea5f 0cdc 	movs.w	ip, ip, lsr #3
     b42:	bf18      	it	ne
     b44:	3203      	addne	r2, #3
     b46:	ea5f 0cdc 	movs.w	ip, ip, lsr #3
     b4a:	bf18      	it	ne
     b4c:	3203      	addne	r2, #3
     b4e:	eb02 02dc 	add.w	r2, r2, ip, lsr #3
     b52:	f1c2 0320 	rsb	r3, r2, #32
     b56:	fa00 fc03 	lsl.w	ip, r0, r3
     b5a:	fa20 f002 	lsr.w	r0, r0, r2
     b5e:	fa01 fe03 	lsl.w	lr, r1, r3
     b62:	ea40 000e 	orr.w	r0, r0, lr
     b66:	fa21 f102 	lsr.w	r1, r1, r2
     b6a:	4414      	add	r4, r2
     b6c:	e6c1      	b.n	8f2 <__adddf3+0xe6>
__floatdidf():
     b6e:	bf00      	nop

00000b70 <__aeabi_dmul>:
__aeabi_dmul():
     b70:	b570      	push	{r4, r5, r6, lr}
     b72:	f04f 0cff 	mov.w	ip, #255	; 0xff
     b76:	f44c 6ce0 	orr.w	ip, ip, #1792	; 0x700
     b7a:	ea1c 5411 	ands.w	r4, ip, r1, lsr #20
     b7e:	bf1d      	ittte	ne
     b80:	ea1c 5513 	andsne.w	r5, ip, r3, lsr #20
     b84:	ea94 0f0c 	teqne	r4, ip
     b88:	ea95 0f0c 	teqne	r5, ip
     b8c:	f000 f8de 	bleq	d4c <__aeabi_dmul+0x1dc>
     b90:	442c      	add	r4, r5
     b92:	ea81 0603 	eor.w	r6, r1, r3
     b96:	ea21 514c 	bic.w	r1, r1, ip, lsl #21
     b9a:	ea23 534c 	bic.w	r3, r3, ip, lsl #21
     b9e:	ea50 3501 	orrs.w	r5, r0, r1, lsl #12
     ba2:	bf18      	it	ne
     ba4:	ea52 3503 	orrsne.w	r5, r2, r3, lsl #12
     ba8:	f441 1180 	orr.w	r1, r1, #1048576	; 0x100000
     bac:	f443 1380 	orr.w	r3, r3, #1048576	; 0x100000
     bb0:	d038      	beq.n	c24 <__aeabi_dmul+0xb4>
     bb2:	fba0 ce02 	umull	ip, lr, r0, r2
     bb6:	f04f 0500 	mov.w	r5, #0
     bba:	fbe1 e502 	umlal	lr, r5, r1, r2
     bbe:	f006 4200 	and.w	r2, r6, #2147483648	; 0x80000000
     bc2:	fbe0 e503 	umlal	lr, r5, r0, r3
     bc6:	f04f 0600 	mov.w	r6, #0
     bca:	fbe1 5603 	umlal	r5, r6, r1, r3
     bce:	f09c 0f00 	teq	ip, #0
     bd2:	bf18      	it	ne
     bd4:	f04e 0e01 	orrne.w	lr, lr, #1
     bd8:	f1a4 04ff 	sub.w	r4, r4, #255	; 0xff
     bdc:	f5b6 7f00 	cmp.w	r6, #512	; 0x200
     be0:	f564 7440 	sbc.w	r4, r4, #768	; 0x300
     be4:	d204      	bcs.n	bf0 <__aeabi_dmul+0x80>
     be6:	ea5f 0e4e 	movs.w	lr, lr, lsl #1
     bea:	416d      	adcs	r5, r5
     bec:	eb46 0606 	adc.w	r6, r6, r6
     bf0:	ea42 21c6 	orr.w	r1, r2, r6, lsl #11
     bf4:	ea41 5155 	orr.w	r1, r1, r5, lsr #21
     bf8:	ea4f 20c5 	mov.w	r0, r5, lsl #11
     bfc:	ea40 505e 	orr.w	r0, r0, lr, lsr #21
     c00:	ea4f 2ece 	mov.w	lr, lr, lsl #11
     c04:	f1b4 0cfd 	subs.w	ip, r4, #253	; 0xfd
     c08:	bf88      	it	hi
     c0a:	f5bc 6fe0 	cmphi.w	ip, #1792	; 0x700
     c0e:	d81e      	bhi.n	c4e <__aeabi_dmul+0xde>
     c10:	f1be 4f00 	cmp.w	lr, #2147483648	; 0x80000000
     c14:	bf08      	it	eq
     c16:	ea5f 0e50 	movseq.w	lr, r0, lsr #1
     c1a:	f150 0000 	adcs.w	r0, r0, #0
     c1e:	eb41 5104 	adc.w	r1, r1, r4, lsl #20
     c22:	bd70      	pop	{r4, r5, r6, pc}
     c24:	f006 4600 	and.w	r6, r6, #2147483648	; 0x80000000
     c28:	ea46 0101 	orr.w	r1, r6, r1
     c2c:	ea40 0002 	orr.w	r0, r0, r2
     c30:	ea81 0103 	eor.w	r1, r1, r3
     c34:	ebb4 045c 	subs.w	r4, r4, ip, lsr #1
     c38:	bfc2      	ittt	gt
     c3a:	ebd4 050c 	rsbsgt	r5, r4, ip
     c3e:	ea41 5104 	orrgt.w	r1, r1, r4, lsl #20
     c42:	bd70      	popgt	{r4, r5, r6, pc}
     c44:	f441 1180 	orr.w	r1, r1, #1048576	; 0x100000
     c48:	f04f 0e00 	mov.w	lr, #0
     c4c:	3c01      	subs	r4, #1
     c4e:	f300 80ab 	bgt.w	da8 <__aeabi_dmul+0x238>
     c52:	f114 0f36 	cmn.w	r4, #54	; 0x36
     c56:	bfde      	ittt	le
     c58:	2000      	movle	r0, #0
     c5a:	f001 4100 	andle.w	r1, r1, #2147483648	; 0x80000000
     c5e:	bd70      	pople	{r4, r5, r6, pc}
     c60:	f1c4 0400 	rsb	r4, r4, #0
     c64:	3c20      	subs	r4, #32
     c66:	da35      	bge.n	cd4 <__aeabi_dmul+0x164>
     c68:	340c      	adds	r4, #12
     c6a:	dc1b      	bgt.n	ca4 <__aeabi_dmul+0x134>
     c6c:	f104 0414 	add.w	r4, r4, #20
     c70:	f1c4 0520 	rsb	r5, r4, #32
     c74:	fa00 f305 	lsl.w	r3, r0, r5
     c78:	fa20 f004 	lsr.w	r0, r0, r4
     c7c:	fa01 f205 	lsl.w	r2, r1, r5
     c80:	ea40 0002 	orr.w	r0, r0, r2
     c84:	f001 4200 	and.w	r2, r1, #2147483648	; 0x80000000
     c88:	f021 4100 	bic.w	r1, r1, #2147483648	; 0x80000000
     c8c:	eb10 70d3 	adds.w	r0, r0, r3, lsr #31
     c90:	fa21 f604 	lsr.w	r6, r1, r4
     c94:	eb42 0106 	adc.w	r1, r2, r6
     c98:	ea5e 0e43 	orrs.w	lr, lr, r3, lsl #1
     c9c:	bf08      	it	eq
     c9e:	ea20 70d3 	biceq.w	r0, r0, r3, lsr #31
     ca2:	bd70      	pop	{r4, r5, r6, pc}
     ca4:	f1c4 040c 	rsb	r4, r4, #12
     ca8:	f1c4 0520 	rsb	r5, r4, #32
     cac:	fa00 f304 	lsl.w	r3, r0, r4
     cb0:	fa20 f005 	lsr.w	r0, r0, r5
     cb4:	fa01 f204 	lsl.w	r2, r1, r4
     cb8:	ea40 0002 	orr.w	r0, r0, r2
     cbc:	f001 4100 	and.w	r1, r1, #2147483648	; 0x80000000
     cc0:	eb10 70d3 	adds.w	r0, r0, r3, lsr #31
     cc4:	f141 0100 	adc.w	r1, r1, #0
     cc8:	ea5e 0e43 	orrs.w	lr, lr, r3, lsl #1
     ccc:	bf08      	it	eq
     cce:	ea20 70d3 	biceq.w	r0, r0, r3, lsr #31
     cd2:	bd70      	pop	{r4, r5, r6, pc}
     cd4:	f1c4 0520 	rsb	r5, r4, #32
     cd8:	fa00 f205 	lsl.w	r2, r0, r5
     cdc:	ea4e 0e02 	orr.w	lr, lr, r2
     ce0:	fa20 f304 	lsr.w	r3, r0, r4
     ce4:	fa01 f205 	lsl.w	r2, r1, r5
     ce8:	ea43 0302 	orr.w	r3, r3, r2
     cec:	fa21 f004 	lsr.w	r0, r1, r4
     cf0:	f001 4100 	and.w	r1, r1, #2147483648	; 0x80000000
     cf4:	fa21 f204 	lsr.w	r2, r1, r4
     cf8:	ea20 0002 	bic.w	r0, r0, r2
     cfc:	eb00 70d3 	add.w	r0, r0, r3, lsr #31
     d00:	ea5e 0e43 	orrs.w	lr, lr, r3, lsl #1
     d04:	bf08      	it	eq
     d06:	ea20 70d3 	biceq.w	r0, r0, r3, lsr #31
     d0a:	bd70      	pop	{r4, r5, r6, pc}
     d0c:	f094 0f00 	teq	r4, #0
     d10:	d10f      	bne.n	d32 <__aeabi_dmul+0x1c2>
     d12:	f001 4600 	and.w	r6, r1, #2147483648	; 0x80000000
     d16:	0040      	lsls	r0, r0, #1
     d18:	eb41 0101 	adc.w	r1, r1, r1
     d1c:	f411 1f80 	tst.w	r1, #1048576	; 0x100000
     d20:	bf08      	it	eq
     d22:	3c01      	subeq	r4, #1
     d24:	d0f7      	beq.n	d16 <__aeabi_dmul+0x1a6>
     d26:	ea41 0106 	orr.w	r1, r1, r6
     d2a:	f095 0f00 	teq	r5, #0
     d2e:	bf18      	it	ne
     d30:	4770      	bxne	lr
     d32:	f003 4600 	and.w	r6, r3, #2147483648	; 0x80000000
     d36:	0052      	lsls	r2, r2, #1
     d38:	eb43 0303 	adc.w	r3, r3, r3
     d3c:	f413 1f80 	tst.w	r3, #1048576	; 0x100000
     d40:	bf08      	it	eq
     d42:	3d01      	subeq	r5, #1
     d44:	d0f7      	beq.n	d36 <__aeabi_dmul+0x1c6>
     d46:	ea43 0306 	orr.w	r3, r3, r6
     d4a:	4770      	bx	lr
     d4c:	ea94 0f0c 	teq	r4, ip
     d50:	ea0c 5513 	and.w	r5, ip, r3, lsr #20
     d54:	bf18      	it	ne
     d56:	ea95 0f0c 	teqne	r5, ip
     d5a:	d00c      	beq.n	d76 <__aeabi_dmul+0x206>
     d5c:	ea50 0641 	orrs.w	r6, r0, r1, lsl #1
     d60:	bf18      	it	ne
     d62:	ea52 0643 	orrsne.w	r6, r2, r3, lsl #1
     d66:	d1d1      	bne.n	d0c <__aeabi_dmul+0x19c>
     d68:	ea81 0103 	eor.w	r1, r1, r3
     d6c:	f001 4100 	and.w	r1, r1, #2147483648	; 0x80000000
     d70:	f04f 0000 	mov.w	r0, #0
     d74:	bd70      	pop	{r4, r5, r6, pc}
     d76:	ea50 0641 	orrs.w	r6, r0, r1, lsl #1
     d7a:	bf06      	itte	eq
     d7c:	4610      	moveq	r0, r2
     d7e:	4619      	moveq	r1, r3
     d80:	ea52 0643 	orrsne.w	r6, r2, r3, lsl #1
     d84:	d019      	beq.n	dba <__aeabi_dmul+0x24a>
     d86:	ea94 0f0c 	teq	r4, ip
     d8a:	d102      	bne.n	d92 <__aeabi_dmul+0x222>
     d8c:	ea50 3601 	orrs.w	r6, r0, r1, lsl #12
     d90:	d113      	bne.n	dba <__aeabi_dmul+0x24a>
     d92:	ea95 0f0c 	teq	r5, ip
     d96:	d105      	bne.n	da4 <__aeabi_dmul+0x234>
     d98:	ea52 3603 	orrs.w	r6, r2, r3, lsl #12
     d9c:	bf1c      	itt	ne
     d9e:	4610      	movne	r0, r2
     da0:	4619      	movne	r1, r3
     da2:	d10a      	bne.n	dba <__aeabi_dmul+0x24a>
     da4:	ea81 0103 	eor.w	r1, r1, r3
     da8:	f001 4100 	and.w	r1, r1, #2147483648	; 0x80000000
     dac:	f041 41fe 	orr.w	r1, r1, #2130706432	; 0x7f000000
     db0:	f441 0170 	orr.w	r1, r1, #15728640	; 0xf00000
     db4:	f04f 0000 	mov.w	r0, #0
     db8:	bd70      	pop	{r4, r5, r6, pc}
     dba:	f041 41fe 	orr.w	r1, r1, #2130706432	; 0x7f000000
     dbe:	f441 0178 	orr.w	r1, r1, #16252928	; 0xf80000
     dc2:	bd70      	pop	{r4, r5, r6, pc}

00000dc4 <__aeabi_ddiv>:
__aeabi_ddiv():
     dc4:	b570      	push	{r4, r5, r6, lr}
     dc6:	f04f 0cff 	mov.w	ip, #255	; 0xff
     dca:	f44c 6ce0 	orr.w	ip, ip, #1792	; 0x700
     dce:	ea1c 5411 	ands.w	r4, ip, r1, lsr #20
     dd2:	bf1d      	ittte	ne
     dd4:	ea1c 5513 	andsne.w	r5, ip, r3, lsr #20
     dd8:	ea94 0f0c 	teqne	r4, ip
     ddc:	ea95 0f0c 	teqne	r5, ip
     de0:	f000 f8a7 	bleq	f32 <__aeabi_ddiv+0x16e>
     de4:	eba4 0405 	sub.w	r4, r4, r5
     de8:	ea81 0e03 	eor.w	lr, r1, r3
     dec:	ea52 3503 	orrs.w	r5, r2, r3, lsl #12
     df0:	ea4f 3101 	mov.w	r1, r1, lsl #12
     df4:	f000 8088 	beq.w	f08 <__aeabi_ddiv+0x144>
     df8:	ea4f 3303 	mov.w	r3, r3, lsl #12
     dfc:	f04f 5580 	mov.w	r5, #268435456	; 0x10000000
     e00:	ea45 1313 	orr.w	r3, r5, r3, lsr #4
     e04:	ea43 6312 	orr.w	r3, r3, r2, lsr #24
     e08:	ea4f 2202 	mov.w	r2, r2, lsl #8
     e0c:	ea45 1511 	orr.w	r5, r5, r1, lsr #4
     e10:	ea45 6510 	orr.w	r5, r5, r0, lsr #24
     e14:	ea4f 2600 	mov.w	r6, r0, lsl #8
     e18:	f00e 4100 	and.w	r1, lr, #2147483648	; 0x80000000
     e1c:	429d      	cmp	r5, r3
     e1e:	bf08      	it	eq
     e20:	4296      	cmpeq	r6, r2
     e22:	f144 04fd 	adc.w	r4, r4, #253	; 0xfd
     e26:	f504 7440 	add.w	r4, r4, #768	; 0x300
     e2a:	d202      	bcs.n	e32 <__aeabi_ddiv+0x6e>
     e2c:	085b      	lsrs	r3, r3, #1
     e2e:	ea4f 0232 	mov.w	r2, r2, rrx
     e32:	1ab6      	subs	r6, r6, r2
     e34:	eb65 0503 	sbc.w	r5, r5, r3
     e38:	085b      	lsrs	r3, r3, #1
     e3a:	ea4f 0232 	mov.w	r2, r2, rrx
     e3e:	f44f 1080 	mov.w	r0, #1048576	; 0x100000
     e42:	f44f 2c00 	mov.w	ip, #524288	; 0x80000
     e46:	ebb6 0e02 	subs.w	lr, r6, r2
     e4a:	eb75 0e03 	sbcs.w	lr, r5, r3
     e4e:	bf22      	ittt	cs
     e50:	1ab6      	subcs	r6, r6, r2
     e52:	4675      	movcs	r5, lr
     e54:	ea40 000c 	orrcs.w	r0, r0, ip
     e58:	085b      	lsrs	r3, r3, #1
     e5a:	ea4f 0232 	mov.w	r2, r2, rrx
     e5e:	ebb6 0e02 	subs.w	lr, r6, r2
     e62:	eb75 0e03 	sbcs.w	lr, r5, r3
     e66:	bf22      	ittt	cs
     e68:	1ab6      	subcs	r6, r6, r2
     e6a:	4675      	movcs	r5, lr
     e6c:	ea40 005c 	orrcs.w	r0, r0, ip, lsr #1
     e70:	085b      	lsrs	r3, r3, #1
     e72:	ea4f 0232 	mov.w	r2, r2, rrx
     e76:	ebb6 0e02 	subs.w	lr, r6, r2
     e7a:	eb75 0e03 	sbcs.w	lr, r5, r3
     e7e:	bf22      	ittt	cs
     e80:	1ab6      	subcs	r6, r6, r2
     e82:	4675      	movcs	r5, lr
     e84:	ea40 009c 	orrcs.w	r0, r0, ip, lsr #2
     e88:	085b      	lsrs	r3, r3, #1
     e8a:	ea4f 0232 	mov.w	r2, r2, rrx
     e8e:	ebb6 0e02 	subs.w	lr, r6, r2
     e92:	eb75 0e03 	sbcs.w	lr, r5, r3
     e96:	bf22      	ittt	cs
     e98:	1ab6      	subcs	r6, r6, r2
     e9a:	4675      	movcs	r5, lr
     e9c:	ea40 00dc 	orrcs.w	r0, r0, ip, lsr #3
     ea0:	ea55 0e06 	orrs.w	lr, r5, r6
     ea4:	d018      	beq.n	ed8 <__aeabi_ddiv+0x114>
     ea6:	ea4f 1505 	mov.w	r5, r5, lsl #4
     eaa:	ea45 7516 	orr.w	r5, r5, r6, lsr #28
     eae:	ea4f 1606 	mov.w	r6, r6, lsl #4
     eb2:	ea4f 03c3 	mov.w	r3, r3, lsl #3
     eb6:	ea43 7352 	orr.w	r3, r3, r2, lsr #29
     eba:	ea4f 02c2 	mov.w	r2, r2, lsl #3
     ebe:	ea5f 1c1c 	movs.w	ip, ip, lsr #4
     ec2:	d1c0      	bne.n	e46 <__aeabi_ddiv+0x82>
     ec4:	f411 1f80 	tst.w	r1, #1048576	; 0x100000
     ec8:	d10b      	bne.n	ee2 <__aeabi_ddiv+0x11e>
     eca:	ea41 0100 	orr.w	r1, r1, r0
     ece:	f04f 0000 	mov.w	r0, #0
     ed2:	f04f 4c00 	mov.w	ip, #2147483648	; 0x80000000
     ed6:	e7b6      	b.n	e46 <__aeabi_ddiv+0x82>
     ed8:	f411 1f80 	tst.w	r1, #1048576	; 0x100000
     edc:	bf04      	itt	eq
     ede:	4301      	orreq	r1, r0
     ee0:	2000      	moveq	r0, #0
     ee2:	f1b4 0cfd 	subs.w	ip, r4, #253	; 0xfd
     ee6:	bf88      	it	hi
     ee8:	f5bc 6fe0 	cmphi.w	ip, #1792	; 0x700
     eec:	f63f aeaf 	bhi.w	c4e <__aeabi_dmul+0xde>
     ef0:	ebb5 0c03 	subs.w	ip, r5, r3
     ef4:	bf04      	itt	eq
     ef6:	ebb6 0c02 	subseq.w	ip, r6, r2
     efa:	ea5f 0c50 	movseq.w	ip, r0, lsr #1
     efe:	f150 0000 	adcs.w	r0, r0, #0
     f02:	eb41 5104 	adc.w	r1, r1, r4, lsl #20
     f06:	bd70      	pop	{r4, r5, r6, pc}
     f08:	f00e 4e00 	and.w	lr, lr, #2147483648	; 0x80000000
     f0c:	ea4e 3111 	orr.w	r1, lr, r1, lsr #12
     f10:	eb14 045c 	adds.w	r4, r4, ip, lsr #1
     f14:	bfc2      	ittt	gt
     f16:	ebd4 050c 	rsbsgt	r5, r4, ip
     f1a:	ea41 5104 	orrgt.w	r1, r1, r4, lsl #20
     f1e:	bd70      	popgt	{r4, r5, r6, pc}
     f20:	f441 1180 	orr.w	r1, r1, #1048576	; 0x100000
     f24:	f04f 0e00 	mov.w	lr, #0
     f28:	3c01      	subs	r4, #1
     f2a:	e690      	b.n	c4e <__aeabi_dmul+0xde>
     f2c:	ea45 0e06 	orr.w	lr, r5, r6
     f30:	e68d      	b.n	c4e <__aeabi_dmul+0xde>
     f32:	ea0c 5513 	and.w	r5, ip, r3, lsr #20
     f36:	ea94 0f0c 	teq	r4, ip
     f3a:	bf08      	it	eq
     f3c:	ea95 0f0c 	teqeq	r5, ip
     f40:	f43f af3b 	beq.w	dba <__aeabi_dmul+0x24a>
     f44:	ea94 0f0c 	teq	r4, ip
     f48:	d10a      	bne.n	f60 <__aeabi_ddiv+0x19c>
     f4a:	ea50 3401 	orrs.w	r4, r0, r1, lsl #12
     f4e:	f47f af34 	bne.w	dba <__aeabi_dmul+0x24a>
     f52:	ea95 0f0c 	teq	r5, ip
     f56:	f47f af25 	bne.w	da4 <__aeabi_dmul+0x234>
     f5a:	4610      	mov	r0, r2
     f5c:	4619      	mov	r1, r3
     f5e:	e72c      	b.n	dba <__aeabi_dmul+0x24a>
     f60:	ea95 0f0c 	teq	r5, ip
     f64:	d106      	bne.n	f74 <__aeabi_ddiv+0x1b0>
     f66:	ea52 3503 	orrs.w	r5, r2, r3, lsl #12
     f6a:	f43f aefd 	beq.w	d68 <__aeabi_dmul+0x1f8>
     f6e:	4610      	mov	r0, r2
     f70:	4619      	mov	r1, r3
     f72:	e722      	b.n	dba <__aeabi_dmul+0x24a>
     f74:	ea50 0641 	orrs.w	r6, r0, r1, lsl #1
     f78:	bf18      	it	ne
     f7a:	ea52 0643 	orrsne.w	r6, r2, r3, lsl #1
     f7e:	f47f aec5 	bne.w	d0c <__aeabi_dmul+0x19c>
     f82:	ea50 0441 	orrs.w	r4, r0, r1, lsl #1
     f86:	f47f af0d 	bne.w	da4 <__aeabi_dmul+0x234>
     f8a:	ea52 0543 	orrs.w	r5, r2, r3, lsl #1
     f8e:	f47f aeeb 	bne.w	d68 <__aeabi_dmul+0x1f8>
     f92:	e712      	b.n	dba <__aeabi_dmul+0x24a>

00000f94 <__aeabi_d2iz>:
__fixdfsi():
     f94:	ea4f 0241 	mov.w	r2, r1, lsl #1
     f98:	f512 1200 	adds.w	r2, r2, #2097152	; 0x200000
     f9c:	d215      	bcs.n	fca <__aeabi_d2iz+0x36>
     f9e:	d511      	bpl.n	fc4 <__aeabi_d2iz+0x30>
     fa0:	f46f 7378 	mvn.w	r3, #992	; 0x3e0
     fa4:	ebb3 5262 	subs.w	r2, r3, r2, asr #21
     fa8:	d912      	bls.n	fd0 <__aeabi_d2iz+0x3c>
     faa:	ea4f 23c1 	mov.w	r3, r1, lsl #11
     fae:	f043 4300 	orr.w	r3, r3, #2147483648	; 0x80000000
     fb2:	ea43 5350 	orr.w	r3, r3, r0, lsr #21
     fb6:	f011 4f00 	tst.w	r1, #2147483648	; 0x80000000
     fba:	fa23 f002 	lsr.w	r0, r3, r2
     fbe:	bf18      	it	ne
     fc0:	4240      	negne	r0, r0
     fc2:	4770      	bx	lr
     fc4:	f04f 0000 	mov.w	r0, #0
     fc8:	4770      	bx	lr
     fca:	ea50 3001 	orrs.w	r0, r0, r1, lsl #12
     fce:	d105      	bne.n	fdc <__aeabi_d2iz+0x48>
     fd0:	f011 4000 	ands.w	r0, r1, #2147483648	; 0x80000000
     fd4:	bf08      	it	eq
     fd6:	f06f 4000 	mvneq.w	r0, #2147483648	; 0x80000000
     fda:	4770      	bx	lr
     fdc:	f04f 0000 	mov.w	r0, #0
     fe0:	4770      	bx	lr
     fe2:	bf00      	nop

00000fe4 <__aeabi_d2f>:
__aeabi_d2f():
     fe4:	ea4f 0241 	mov.w	r2, r1, lsl #1
     fe8:	f1b2 43e0 	subs.w	r3, r2, #1879048192	; 0x70000000
     fec:	bf24      	itt	cs
     fee:	f5b3 1c00 	subscs.w	ip, r3, #2097152	; 0x200000
     ff2:	f1dc 5cfe 	rsbscs	ip, ip, #532676608	; 0x1fc00000
     ff6:	d90d      	bls.n	1014 <__aeabi_d2f+0x30>
     ff8:	f001 4c00 	and.w	ip, r1, #2147483648	; 0x80000000
     ffc:	ea4f 02c0 	mov.w	r2, r0, lsl #3
    1000:	ea4c 7050 	orr.w	r0, ip, r0, lsr #29
    1004:	f1b2 4f00 	cmp.w	r2, #2147483648	; 0x80000000
    1008:	eb40 0083 	adc.w	r0, r0, r3, lsl #2
    100c:	bf08      	it	eq
    100e:	f020 0001 	biceq.w	r0, r0, #1
    1012:	4770      	bx	lr
    1014:	f011 4f80 	tst.w	r1, #1073741824	; 0x40000000
    1018:	d121      	bne.n	105e <__aeabi_d2f+0x7a>
    101a:	f113 7238 	adds.w	r2, r3, #48234496	; 0x2e00000
    101e:	bfbc      	itt	lt
    1020:	f001 4000 	andlt.w	r0, r1, #2147483648	; 0x80000000
    1024:	4770      	bxlt	lr
    1026:	f441 1180 	orr.w	r1, r1, #1048576	; 0x100000
    102a:	ea4f 5252 	mov.w	r2, r2, lsr #21
    102e:	f1c2 0218 	rsb	r2, r2, #24
    1032:	f1c2 0c20 	rsb	ip, r2, #32
    1036:	fa10 f30c 	lsls.w	r3, r0, ip
    103a:	fa20 f002 	lsr.w	r0, r0, r2
    103e:	bf18      	it	ne
    1040:	f040 0001 	orrne.w	r0, r0, #1
    1044:	ea4f 23c1 	mov.w	r3, r1, lsl #11
    1048:	ea4f 23d3 	mov.w	r3, r3, lsr #11
    104c:	fa03 fc0c 	lsl.w	ip, r3, ip
    1050:	ea40 000c 	orr.w	r0, r0, ip
    1054:	fa23 f302 	lsr.w	r3, r3, r2
    1058:	ea4f 0343 	mov.w	r3, r3, lsl #1
    105c:	e7cc      	b.n	ff8 <__aeabi_d2f+0x14>
    105e:	ea7f 5362 	mvns.w	r3, r2, asr #21
    1062:	d107      	bne.n	1074 <__aeabi_d2f+0x90>
    1064:	ea50 3301 	orrs.w	r3, r0, r1, lsl #12
    1068:	bf1e      	ittt	ne
    106a:	f04f 40fe 	movne.w	r0, #2130706432	; 0x7f000000
    106e:	f440 0040 	orrne.w	r0, r0, #12582912	; 0xc00000
    1072:	4770      	bxne	lr
    1074:	f001 4000 	and.w	r0, r1, #2147483648	; 0x80000000
    1078:	f040 40fe 	orr.w	r0, r0, #2130706432	; 0x7f000000
    107c:	f440 0000 	orr.w	r0, r0, #8388608	; 0x800000
    1080:	4770      	bx	lr
    1082:	bf00      	nop

00001084 <__aeabi_frsub>:
__aeabi_frsub():
    1084:	f080 4000 	eor.w	r0, r0, #2147483648	; 0x80000000
    1088:	e002      	b.n	1090 <__addsf3>
    108a:	bf00      	nop

0000108c <__aeabi_fsub>:
    108c:	f081 4100 	eor.w	r1, r1, #2147483648	; 0x80000000

00001090 <__addsf3>:
    1090:	0042      	lsls	r2, r0, #1
    1092:	bf1f      	itttt	ne
    1094:	ea5f 0341 	movsne.w	r3, r1, lsl #1
    1098:	ea92 0f03 	teqne	r2, r3
    109c:	ea7f 6c22 	mvnsne.w	ip, r2, asr #24
    10a0:	ea7f 6c23 	mvnsne.w	ip, r3, asr #24
    10a4:	d06a      	beq.n	117c <__addsf3+0xec>
    10a6:	ea4f 6212 	mov.w	r2, r2, lsr #24
    10aa:	ebd2 6313 	rsbs	r3, r2, r3, lsr #24
    10ae:	bfc1      	itttt	gt
    10b0:	18d2      	addgt	r2, r2, r3
    10b2:	4041      	eorgt	r1, r0
    10b4:	4048      	eorgt	r0, r1
    10b6:	4041      	eorgt	r1, r0
    10b8:	bfb8      	it	lt
    10ba:	425b      	neglt	r3, r3
    10bc:	2b19      	cmp	r3, #25
    10be:	bf88      	it	hi
    10c0:	4770      	bxhi	lr
    10c2:	f010 4f00 	tst.w	r0, #2147483648	; 0x80000000
    10c6:	f440 0000 	orr.w	r0, r0, #8388608	; 0x800000
    10ca:	f020 407f 	bic.w	r0, r0, #4278190080	; 0xff000000
    10ce:	bf18      	it	ne
    10d0:	4240      	negne	r0, r0
    10d2:	f011 4f00 	tst.w	r1, #2147483648	; 0x80000000
    10d6:	f441 0100 	orr.w	r1, r1, #8388608	; 0x800000
    10da:	f021 417f 	bic.w	r1, r1, #4278190080	; 0xff000000
    10de:	bf18      	it	ne
    10e0:	4249      	negne	r1, r1
    10e2:	ea92 0f03 	teq	r2, r3
    10e6:	d03f      	beq.n	1168 <__addsf3+0xd8>
    10e8:	f1a2 0201 	sub.w	r2, r2, #1
    10ec:	fa41 fc03 	asr.w	ip, r1, r3
    10f0:	eb10 000c 	adds.w	r0, r0, ip
    10f4:	f1c3 0320 	rsb	r3, r3, #32
    10f8:	fa01 f103 	lsl.w	r1, r1, r3
    10fc:	f000 4300 	and.w	r3, r0, #2147483648	; 0x80000000
    1100:	d502      	bpl.n	1108 <__addsf3+0x78>
    1102:	4249      	negs	r1, r1
    1104:	eb60 0040 	sbc.w	r0, r0, r0, lsl #1
    1108:	f5b0 0f00 	cmp.w	r0, #8388608	; 0x800000
    110c:	d313      	bcc.n	1136 <__addsf3+0xa6>
    110e:	f1b0 7f80 	cmp.w	r0, #16777216	; 0x1000000
    1112:	d306      	bcc.n	1122 <__addsf3+0x92>
    1114:	0840      	lsrs	r0, r0, #1
    1116:	ea4f 0131 	mov.w	r1, r1, rrx
    111a:	f102 0201 	add.w	r2, r2, #1
    111e:	2afe      	cmp	r2, #254	; 0xfe
    1120:	d251      	bcs.n	11c6 <__addsf3+0x136>
    1122:	f1b1 4f00 	cmp.w	r1, #2147483648	; 0x80000000
    1126:	eb40 50c2 	adc.w	r0, r0, r2, lsl #23
    112a:	bf08      	it	eq
    112c:	f020 0001 	biceq.w	r0, r0, #1
    1130:	ea40 0003 	orr.w	r0, r0, r3
    1134:	4770      	bx	lr
    1136:	0049      	lsls	r1, r1, #1
    1138:	eb40 0000 	adc.w	r0, r0, r0
    113c:	f410 0f00 	tst.w	r0, #8388608	; 0x800000
    1140:	f1a2 0201 	sub.w	r2, r2, #1
    1144:	d1ed      	bne.n	1122 <__addsf3+0x92>
    1146:	fab0 fc80 	clz	ip, r0
    114a:	f1ac 0c08 	sub.w	ip, ip, #8
    114e:	ebb2 020c 	subs.w	r2, r2, ip
    1152:	fa00 f00c 	lsl.w	r0, r0, ip
    1156:	bfaa      	itet	ge
    1158:	eb00 50c2 	addge.w	r0, r0, r2, lsl #23
    115c:	4252      	neglt	r2, r2
    115e:	4318      	orrge	r0, r3
    1160:	bfbc      	itt	lt
    1162:	40d0      	lsrlt	r0, r2
    1164:	4318      	orrlt	r0, r3
    1166:	4770      	bx	lr
    1168:	f092 0f00 	teq	r2, #0
    116c:	f481 0100 	eor.w	r1, r1, #8388608	; 0x800000
    1170:	bf06      	itte	eq
    1172:	f480 0000 	eoreq.w	r0, r0, #8388608	; 0x800000
    1176:	3201      	addeq	r2, #1
    1178:	3b01      	subne	r3, #1
    117a:	e7b5      	b.n	10e8 <__addsf3+0x58>
    117c:	ea4f 0341 	mov.w	r3, r1, lsl #1
    1180:	ea7f 6c22 	mvns.w	ip, r2, asr #24
    1184:	bf18      	it	ne
    1186:	ea7f 6c23 	mvnsne.w	ip, r3, asr #24
    118a:	d021      	beq.n	11d0 <__addsf3+0x140>
    118c:	ea92 0f03 	teq	r2, r3
    1190:	d004      	beq.n	119c <__addsf3+0x10c>
    1192:	f092 0f00 	teq	r2, #0
    1196:	bf08      	it	eq
    1198:	4608      	moveq	r0, r1
    119a:	4770      	bx	lr
    119c:	ea90 0f01 	teq	r0, r1
    11a0:	bf1c      	itt	ne
    11a2:	2000      	movne	r0, #0
    11a4:	4770      	bxne	lr
    11a6:	f012 4f7f 	tst.w	r2, #4278190080	; 0xff000000
    11aa:	d104      	bne.n	11b6 <__addsf3+0x126>
    11ac:	0040      	lsls	r0, r0, #1
    11ae:	bf28      	it	cs
    11b0:	f040 4000 	orrcs.w	r0, r0, #2147483648	; 0x80000000
    11b4:	4770      	bx	lr
    11b6:	f112 7200 	adds.w	r2, r2, #33554432	; 0x2000000
    11ba:	bf3c      	itt	cc
    11bc:	f500 0000 	addcc.w	r0, r0, #8388608	; 0x800000
    11c0:	4770      	bxcc	lr
    11c2:	f000 4300 	and.w	r3, r0, #2147483648	; 0x80000000
    11c6:	f043 40fe 	orr.w	r0, r3, #2130706432	; 0x7f000000
    11ca:	f440 0000 	orr.w	r0, r0, #8388608	; 0x800000
    11ce:	4770      	bx	lr
    11d0:	ea7f 6222 	mvns.w	r2, r2, asr #24
    11d4:	bf16      	itet	ne
    11d6:	4608      	movne	r0, r1
    11d8:	ea7f 6323 	mvnseq.w	r3, r3, asr #24
    11dc:	4601      	movne	r1, r0
    11de:	0242      	lsls	r2, r0, #9
    11e0:	bf06      	itte	eq
    11e2:	ea5f 2341 	movseq.w	r3, r1, lsl #9
    11e6:	ea90 0f01 	teqeq	r0, r1
    11ea:	f440 0080 	orrne.w	r0, r0, #4194304	; 0x400000
    11ee:	4770      	bx	lr

000011f0 <__aeabi_ui2f>:
__aeabi_ui2f():
    11f0:	f04f 0300 	mov.w	r3, #0
    11f4:	e004      	b.n	1200 <__aeabi_i2f+0x8>
    11f6:	bf00      	nop

000011f8 <__aeabi_i2f>:
    11f8:	f010 4300 	ands.w	r3, r0, #2147483648	; 0x80000000
    11fc:	bf48      	it	mi
    11fe:	4240      	negmi	r0, r0
    1200:	ea5f 0c00 	movs.w	ip, r0
    1204:	bf08      	it	eq
    1206:	4770      	bxeq	lr
    1208:	f043 4396 	orr.w	r3, r3, #1258291200	; 0x4b000000
    120c:	4601      	mov	r1, r0
    120e:	f04f 0000 	mov.w	r0, #0
    1212:	e01c      	b.n	124e <__aeabi_l2f+0x2a>

00001214 <__aeabi_ul2f>:
__floatundisf():
    1214:	ea50 0201 	orrs.w	r2, r0, r1
    1218:	bf08      	it	eq
    121a:	4770      	bxeq	lr
    121c:	f04f 0300 	mov.w	r3, #0
    1220:	e00a      	b.n	1238 <__aeabi_l2f+0x14>
    1222:	bf00      	nop

00001224 <__aeabi_l2f>:
    1224:	ea50 0201 	orrs.w	r2, r0, r1
    1228:	bf08      	it	eq
    122a:	4770      	bxeq	lr
    122c:	f011 4300 	ands.w	r3, r1, #2147483648	; 0x80000000
    1230:	d502      	bpl.n	1238 <__aeabi_l2f+0x14>
    1232:	4240      	negs	r0, r0
    1234:	eb61 0141 	sbc.w	r1, r1, r1, lsl #1
    1238:	ea5f 0c01 	movs.w	ip, r1
    123c:	bf02      	ittt	eq
    123e:	4684      	moveq	ip, r0
    1240:	4601      	moveq	r1, r0
    1242:	2000      	moveq	r0, #0
    1244:	f043 43b6 	orr.w	r3, r3, #1526726656	; 0x5b000000
    1248:	bf08      	it	eq
    124a:	f1a3 5380 	subeq.w	r3, r3, #268435456	; 0x10000000
    124e:	f5a3 0300 	sub.w	r3, r3, #8388608	; 0x800000
    1252:	fabc f28c 	clz	r2, ip
    1256:	3a08      	subs	r2, #8
    1258:	eba3 53c2 	sub.w	r3, r3, r2, lsl #23
    125c:	db10      	blt.n	1280 <__aeabi_l2f+0x5c>
    125e:	fa01 fc02 	lsl.w	ip, r1, r2
    1262:	4463      	add	r3, ip
    1264:	fa00 fc02 	lsl.w	ip, r0, r2
    1268:	f1c2 0220 	rsb	r2, r2, #32
    126c:	f1bc 4f00 	cmp.w	ip, #2147483648	; 0x80000000
    1270:	fa20 f202 	lsr.w	r2, r0, r2
    1274:	eb43 0002 	adc.w	r0, r3, r2
    1278:	bf08      	it	eq
    127a:	f020 0001 	biceq.w	r0, r0, #1
    127e:	4770      	bx	lr
    1280:	f102 0220 	add.w	r2, r2, #32
    1284:	fa01 fc02 	lsl.w	ip, r1, r2
    1288:	f1c2 0220 	rsb	r2, r2, #32
    128c:	ea50 004c 	orrs.w	r0, r0, ip, lsl #1
    1290:	fa21 f202 	lsr.w	r2, r1, r2
    1294:	eb43 0002 	adc.w	r0, r3, r2
    1298:	bf08      	it	eq
    129a:	ea20 70dc 	biceq.w	r0, r0, ip, lsr #31
    129e:	4770      	bx	lr

000012a0 <__aeabi_fmul>:
__mulsf3():
    12a0:	f04f 0cff 	mov.w	ip, #255	; 0xff
    12a4:	ea1c 52d0 	ands.w	r2, ip, r0, lsr #23
    12a8:	bf1e      	ittt	ne
    12aa:	ea1c 53d1 	andsne.w	r3, ip, r1, lsr #23
    12ae:	ea92 0f0c 	teqne	r2, ip
    12b2:	ea93 0f0c 	teqne	r3, ip
    12b6:	d06f      	beq.n	1398 <__aeabi_fmul+0xf8>
    12b8:	441a      	add	r2, r3
    12ba:	ea80 0c01 	eor.w	ip, r0, r1
    12be:	0240      	lsls	r0, r0, #9
    12c0:	bf18      	it	ne
    12c2:	ea5f 2141 	movsne.w	r1, r1, lsl #9
    12c6:	d01e      	beq.n	1306 <__aeabi_fmul+0x66>
    12c8:	f04f 6300 	mov.w	r3, #134217728	; 0x8000000
    12cc:	ea43 1050 	orr.w	r0, r3, r0, lsr #5
    12d0:	ea43 1151 	orr.w	r1, r3, r1, lsr #5
    12d4:	fba0 3101 	umull	r3, r1, r0, r1
    12d8:	f00c 4000 	and.w	r0, ip, #2147483648	; 0x80000000
    12dc:	f5b1 0f00 	cmp.w	r1, #8388608	; 0x800000
    12e0:	bf3e      	ittt	cc
    12e2:	0049      	lslcc	r1, r1, #1
    12e4:	ea41 71d3 	orrcc.w	r1, r1, r3, lsr #31
    12e8:	005b      	lslcc	r3, r3, #1
    12ea:	ea40 0001 	orr.w	r0, r0, r1
    12ee:	f162 027f 	sbc.w	r2, r2, #127	; 0x7f
    12f2:	2afd      	cmp	r2, #253	; 0xfd
    12f4:	d81d      	bhi.n	1332 <__aeabi_fmul+0x92>
    12f6:	f1b3 4f00 	cmp.w	r3, #2147483648	; 0x80000000
    12fa:	eb40 50c2 	adc.w	r0, r0, r2, lsl #23
    12fe:	bf08      	it	eq
    1300:	f020 0001 	biceq.w	r0, r0, #1
    1304:	4770      	bx	lr
    1306:	f090 0f00 	teq	r0, #0
    130a:	f00c 4c00 	and.w	ip, ip, #2147483648	; 0x80000000
    130e:	bf08      	it	eq
    1310:	0249      	lsleq	r1, r1, #9
    1312:	ea4c 2050 	orr.w	r0, ip, r0, lsr #9
    1316:	ea40 2051 	orr.w	r0, r0, r1, lsr #9
    131a:	3a7f      	subs	r2, #127	; 0x7f
    131c:	bfc2      	ittt	gt
    131e:	f1d2 03ff 	rsbsgt	r3, r2, #255	; 0xff
    1322:	ea40 50c2 	orrgt.w	r0, r0, r2, lsl #23
    1326:	4770      	bxgt	lr
    1328:	f440 0000 	orr.w	r0, r0, #8388608	; 0x800000
    132c:	f04f 0300 	mov.w	r3, #0
    1330:	3a01      	subs	r2, #1
    1332:	dc5d      	bgt.n	13f0 <__aeabi_fmul+0x150>
    1334:	f112 0f19 	cmn.w	r2, #25
    1338:	bfdc      	itt	le
    133a:	f000 4000 	andle.w	r0, r0, #2147483648	; 0x80000000
    133e:	4770      	bxle	lr
    1340:	f1c2 0200 	rsb	r2, r2, #0
    1344:	0041      	lsls	r1, r0, #1
    1346:	fa21 f102 	lsr.w	r1, r1, r2
    134a:	f1c2 0220 	rsb	r2, r2, #32
    134e:	fa00 fc02 	lsl.w	ip, r0, r2
    1352:	ea5f 0031 	movs.w	r0, r1, rrx
    1356:	f140 0000 	adc.w	r0, r0, #0
    135a:	ea53 034c 	orrs.w	r3, r3, ip, lsl #1
    135e:	bf08      	it	eq
    1360:	ea20 70dc 	biceq.w	r0, r0, ip, lsr #31
    1364:	4770      	bx	lr
    1366:	f092 0f00 	teq	r2, #0
    136a:	f000 4c00 	and.w	ip, r0, #2147483648	; 0x80000000
    136e:	bf02      	ittt	eq
    1370:	0040      	lsleq	r0, r0, #1
    1372:	f410 0f00 	tsteq.w	r0, #8388608	; 0x800000
    1376:	3a01      	subeq	r2, #1
    1378:	d0f9      	beq.n	136e <__aeabi_fmul+0xce>
    137a:	ea40 000c 	orr.w	r0, r0, ip
    137e:	f093 0f00 	teq	r3, #0
    1382:	f001 4c00 	and.w	ip, r1, #2147483648	; 0x80000000
    1386:	bf02      	ittt	eq
    1388:	0049      	lsleq	r1, r1, #1
    138a:	f411 0f00 	tsteq.w	r1, #8388608	; 0x800000
    138e:	3b01      	subeq	r3, #1
    1390:	d0f9      	beq.n	1386 <__aeabi_fmul+0xe6>
    1392:	ea41 010c 	orr.w	r1, r1, ip
    1396:	e78f      	b.n	12b8 <__aeabi_fmul+0x18>
    1398:	ea0c 53d1 	and.w	r3, ip, r1, lsr #23
    139c:	ea92 0f0c 	teq	r2, ip
    13a0:	bf18      	it	ne
    13a2:	ea93 0f0c 	teqne	r3, ip
    13a6:	d00a      	beq.n	13be <__aeabi_fmul+0x11e>
    13a8:	f030 4c00 	bics.w	ip, r0, #2147483648	; 0x80000000
    13ac:	bf18      	it	ne
    13ae:	f031 4c00 	bicsne.w	ip, r1, #2147483648	; 0x80000000
    13b2:	d1d8      	bne.n	1366 <__aeabi_fmul+0xc6>
    13b4:	ea80 0001 	eor.w	r0, r0, r1
    13b8:	f000 4000 	and.w	r0, r0, #2147483648	; 0x80000000
    13bc:	4770      	bx	lr
    13be:	f090 0f00 	teq	r0, #0
    13c2:	bf17      	itett	ne
    13c4:	f090 4f00 	teqne	r0, #2147483648	; 0x80000000
    13c8:	4608      	moveq	r0, r1
    13ca:	f091 0f00 	teqne	r1, #0
    13ce:	f091 4f00 	teqne	r1, #2147483648	; 0x80000000
    13d2:	d014      	beq.n	13fe <__aeabi_fmul+0x15e>
    13d4:	ea92 0f0c 	teq	r2, ip
    13d8:	d101      	bne.n	13de <__aeabi_fmul+0x13e>
    13da:	0242      	lsls	r2, r0, #9
    13dc:	d10f      	bne.n	13fe <__aeabi_fmul+0x15e>
    13de:	ea93 0f0c 	teq	r3, ip
    13e2:	d103      	bne.n	13ec <__aeabi_fmul+0x14c>
    13e4:	024b      	lsls	r3, r1, #9
    13e6:	bf18      	it	ne
    13e8:	4608      	movne	r0, r1
    13ea:	d108      	bne.n	13fe <__aeabi_fmul+0x15e>
    13ec:	ea80 0001 	eor.w	r0, r0, r1
    13f0:	f000 4000 	and.w	r0, r0, #2147483648	; 0x80000000
    13f4:	f040 40fe 	orr.w	r0, r0, #2130706432	; 0x7f000000
    13f8:	f440 0000 	orr.w	r0, r0, #8388608	; 0x800000
    13fc:	4770      	bx	lr
    13fe:	f040 40fe 	orr.w	r0, r0, #2130706432	; 0x7f000000
    1402:	f440 0040 	orr.w	r0, r0, #12582912	; 0xc00000
    1406:	4770      	bx	lr

00001408 <__aeabi_fdiv>:
__divsf3():
    1408:	f04f 0cff 	mov.w	ip, #255	; 0xff
    140c:	ea1c 52d0 	ands.w	r2, ip, r0, lsr #23
    1410:	bf1e      	ittt	ne
    1412:	ea1c 53d1 	andsne.w	r3, ip, r1, lsr #23
    1416:	ea92 0f0c 	teqne	r2, ip
    141a:	ea93 0f0c 	teqne	r3, ip
    141e:	d069      	beq.n	14f4 <__aeabi_fdiv+0xec>
    1420:	eba2 0203 	sub.w	r2, r2, r3
    1424:	ea80 0c01 	eor.w	ip, r0, r1
    1428:	0249      	lsls	r1, r1, #9
    142a:	ea4f 2040 	mov.w	r0, r0, lsl #9
    142e:	d037      	beq.n	14a0 <__aeabi_fdiv+0x98>
    1430:	f04f 5380 	mov.w	r3, #268435456	; 0x10000000
    1434:	ea43 1111 	orr.w	r1, r3, r1, lsr #4
    1438:	ea43 1310 	orr.w	r3, r3, r0, lsr #4
    143c:	f00c 4000 	and.w	r0, ip, #2147483648	; 0x80000000
    1440:	428b      	cmp	r3, r1
    1442:	bf38      	it	cc
    1444:	005b      	lslcc	r3, r3, #1
    1446:	f142 027d 	adc.w	r2, r2, #125	; 0x7d
    144a:	f44f 0c00 	mov.w	ip, #8388608	; 0x800000
    144e:	428b      	cmp	r3, r1
    1450:	bf24      	itt	cs
    1452:	1a5b      	subcs	r3, r3, r1
    1454:	ea40 000c 	orrcs.w	r0, r0, ip
    1458:	ebb3 0f51 	cmp.w	r3, r1, lsr #1
    145c:	bf24      	itt	cs
    145e:	eba3 0351 	subcs.w	r3, r3, r1, lsr #1
    1462:	ea40 005c 	orrcs.w	r0, r0, ip, lsr #1
    1466:	ebb3 0f91 	cmp.w	r3, r1, lsr #2
    146a:	bf24      	itt	cs
    146c:	eba3 0391 	subcs.w	r3, r3, r1, lsr #2
    1470:	ea40 009c 	orrcs.w	r0, r0, ip, lsr #2
    1474:	ebb3 0fd1 	cmp.w	r3, r1, lsr #3
    1478:	bf24      	itt	cs
    147a:	eba3 03d1 	subcs.w	r3, r3, r1, lsr #3
    147e:	ea40 00dc 	orrcs.w	r0, r0, ip, lsr #3
    1482:	011b      	lsls	r3, r3, #4
    1484:	bf18      	it	ne
    1486:	ea5f 1c1c 	movsne.w	ip, ip, lsr #4
    148a:	d1e0      	bne.n	144e <__aeabi_fdiv+0x46>
    148c:	2afd      	cmp	r2, #253	; 0xfd
    148e:	f63f af50 	bhi.w	1332 <__aeabi_fmul+0x92>
    1492:	428b      	cmp	r3, r1
    1494:	eb40 50c2 	adc.w	r0, r0, r2, lsl #23
    1498:	bf08      	it	eq
    149a:	f020 0001 	biceq.w	r0, r0, #1
    149e:	4770      	bx	lr
    14a0:	f00c 4c00 	and.w	ip, ip, #2147483648	; 0x80000000
    14a4:	ea4c 2050 	orr.w	r0, ip, r0, lsr #9
    14a8:	327f      	adds	r2, #127	; 0x7f
    14aa:	bfc2      	ittt	gt
    14ac:	f1d2 03ff 	rsbsgt	r3, r2, #255	; 0xff
    14b0:	ea40 50c2 	orrgt.w	r0, r0, r2, lsl #23
    14b4:	4770      	bxgt	lr
    14b6:	f440 0000 	orr.w	r0, r0, #8388608	; 0x800000
    14ba:	f04f 0300 	mov.w	r3, #0
    14be:	3a01      	subs	r2, #1
    14c0:	e737      	b.n	1332 <__aeabi_fmul+0x92>
    14c2:	f092 0f00 	teq	r2, #0
    14c6:	f000 4c00 	and.w	ip, r0, #2147483648	; 0x80000000
    14ca:	bf02      	ittt	eq
    14cc:	0040      	lsleq	r0, r0, #1
    14ce:	f410 0f00 	tsteq.w	r0, #8388608	; 0x800000
    14d2:	3a01      	subeq	r2, #1
    14d4:	d0f9      	beq.n	14ca <__aeabi_fdiv+0xc2>
    14d6:	ea40 000c 	orr.w	r0, r0, ip
    14da:	f093 0f00 	teq	r3, #0
    14de:	f001 4c00 	and.w	ip, r1, #2147483648	; 0x80000000
    14e2:	bf02      	ittt	eq
    14e4:	0049      	lsleq	r1, r1, #1
    14e6:	f411 0f00 	tsteq.w	r1, #8388608	; 0x800000
    14ea:	3b01      	subeq	r3, #1
    14ec:	d0f9      	beq.n	14e2 <__aeabi_fdiv+0xda>
    14ee:	ea41 010c 	orr.w	r1, r1, ip
    14f2:	e795      	b.n	1420 <__aeabi_fdiv+0x18>
    14f4:	ea0c 53d1 	and.w	r3, ip, r1, lsr #23
    14f8:	ea92 0f0c 	teq	r2, ip
    14fc:	d108      	bne.n	1510 <__aeabi_fdiv+0x108>
    14fe:	0242      	lsls	r2, r0, #9
    1500:	f47f af7d 	bne.w	13fe <__aeabi_fmul+0x15e>
    1504:	ea93 0f0c 	teq	r3, ip
    1508:	f47f af70 	bne.w	13ec <__aeabi_fmul+0x14c>
    150c:	4608      	mov	r0, r1
    150e:	e776      	b.n	13fe <__aeabi_fmul+0x15e>
    1510:	ea93 0f0c 	teq	r3, ip
    1514:	d104      	bne.n	1520 <__aeabi_fdiv+0x118>
    1516:	024b      	lsls	r3, r1, #9
    1518:	f43f af4c 	beq.w	13b4 <__aeabi_fmul+0x114>
    151c:	4608      	mov	r0, r1
    151e:	e76e      	b.n	13fe <__aeabi_fmul+0x15e>
    1520:	f030 4c00 	bics.w	ip, r0, #2147483648	; 0x80000000
    1524:	bf18      	it	ne
    1526:	f031 4c00 	bicsne.w	ip, r1, #2147483648	; 0x80000000
    152a:	d1ca      	bne.n	14c2 <__aeabi_fdiv+0xba>
    152c:	f030 4200 	bics.w	r2, r0, #2147483648	; 0x80000000
    1530:	f47f af5c 	bne.w	13ec <__aeabi_fmul+0x14c>
    1534:	f031 4300 	bics.w	r3, r1, #2147483648	; 0x80000000
    1538:	f47f af3c 	bne.w	13b4 <__aeabi_fmul+0x114>
    153c:	e75f      	b.n	13fe <__aeabi_fmul+0x15e>
    153e:	bf00      	nop

00001540 <__aeabi_f2iz>:
__fixsfsi():
    1540:	ea4f 0240 	mov.w	r2, r0, lsl #1
    1544:	f1b2 4ffe 	cmp.w	r2, #2130706432	; 0x7f000000
    1548:	d30f      	bcc.n	156a <__aeabi_f2iz+0x2a>
    154a:	f04f 039e 	mov.w	r3, #158	; 0x9e
    154e:	ebb3 6212 	subs.w	r2, r3, r2, lsr #24
    1552:	d90d      	bls.n	1570 <__aeabi_f2iz+0x30>
    1554:	ea4f 2300 	mov.w	r3, r0, lsl #8
    1558:	f043 4300 	orr.w	r3, r3, #2147483648	; 0x80000000
    155c:	f010 4f00 	tst.w	r0, #2147483648	; 0x80000000
    1560:	fa23 f002 	lsr.w	r0, r3, r2
    1564:	bf18      	it	ne
    1566:	4240      	negne	r0, r0
    1568:	4770      	bx	lr
    156a:	f04f 0000 	mov.w	r0, #0
    156e:	4770      	bx	lr
    1570:	f112 0f61 	cmn.w	r2, #97	; 0x61
    1574:	d101      	bne.n	157a <__aeabi_f2iz+0x3a>
    1576:	0242      	lsls	r2, r0, #9
    1578:	d105      	bne.n	1586 <__aeabi_f2iz+0x46>
    157a:	f010 4000 	ands.w	r0, r0, #2147483648	; 0x80000000
    157e:	bf08      	it	eq
    1580:	f06f 4000 	mvneq.w	r0, #2147483648	; 0x80000000
    1584:	4770      	bx	lr
    1586:	f04f 0000 	mov.w	r0, #0
    158a:	4770      	bx	lr

0000158c <__gedf2>:
__gtdf2():
    158c:	f04f 3cff 	mov.w	ip, #4294967295
    1590:	e006      	b.n	15a0 <__cmpdf2+0x4>
    1592:	bf00      	nop

00001594 <__ledf2>:
    1594:	f04f 0c01 	mov.w	ip, #1
    1598:	e002      	b.n	15a0 <__cmpdf2+0x4>
    159a:	bf00      	nop

0000159c <__cmpdf2>:
    159c:	f04f 0c01 	mov.w	ip, #1
    15a0:	f84d cd04 	str.w	ip, [sp, #-4]!
    15a4:	ea4f 0c41 	mov.w	ip, r1, lsl #1
    15a8:	ea7f 5c6c 	mvns.w	ip, ip, asr #21
    15ac:	ea4f 0c43 	mov.w	ip, r3, lsl #1
    15b0:	bf18      	it	ne
    15b2:	ea7f 5c6c 	mvnsne.w	ip, ip, asr #21
    15b6:	d01b      	beq.n	15f0 <__cmpdf2+0x54>
    15b8:	b001      	add	sp, #4
    15ba:	ea50 0c41 	orrs.w	ip, r0, r1, lsl #1
    15be:	bf0c      	ite	eq
    15c0:	ea52 0c43 	orrseq.w	ip, r2, r3, lsl #1
    15c4:	ea91 0f03 	teqne	r1, r3
    15c8:	bf02      	ittt	eq
    15ca:	ea90 0f02 	teqeq	r0, r2
    15ce:	2000      	moveq	r0, #0
    15d0:	4770      	bxeq	lr
    15d2:	f110 0f00 	cmn.w	r0, #0
    15d6:	ea91 0f03 	teq	r1, r3
    15da:	bf58      	it	pl
    15dc:	4299      	cmppl	r1, r3
    15de:	bf08      	it	eq
    15e0:	4290      	cmpeq	r0, r2
    15e2:	bf2c      	ite	cs
    15e4:	17d8      	asrcs	r0, r3, #31
    15e6:	ea6f 70e3 	mvncc.w	r0, r3, asr #31
    15ea:	f040 0001 	orr.w	r0, r0, #1
    15ee:	4770      	bx	lr
    15f0:	ea4f 0c41 	mov.w	ip, r1, lsl #1
    15f4:	ea7f 5c6c 	mvns.w	ip, ip, asr #21
    15f8:	d102      	bne.n	1600 <__cmpdf2+0x64>
    15fa:	ea50 3c01 	orrs.w	ip, r0, r1, lsl #12
    15fe:	d107      	bne.n	1610 <__cmpdf2+0x74>
    1600:	ea4f 0c43 	mov.w	ip, r3, lsl #1
    1604:	ea7f 5c6c 	mvns.w	ip, ip, asr #21
    1608:	d1d6      	bne.n	15b8 <__cmpdf2+0x1c>
    160a:	ea52 3c03 	orrs.w	ip, r2, r3, lsl #12
    160e:	d0d3      	beq.n	15b8 <__cmpdf2+0x1c>
    1610:	f85d 0b04 	ldr.w	r0, [sp], #4
    1614:	4770      	bx	lr
__cmpdf2():
    1616:	bf00      	nop

00001618 <__aeabi_cdrcmple>:
__aeabi_cdrcmple():
    1618:	4684      	mov	ip, r0
    161a:	4610      	mov	r0, r2
    161c:	4662      	mov	r2, ip
    161e:	468c      	mov	ip, r1
    1620:	4619      	mov	r1, r3
    1622:	4663      	mov	r3, ip
    1624:	e000      	b.n	1628 <__aeabi_cdcmpeq>
    1626:	bf00      	nop

00001628 <__aeabi_cdcmpeq>:
    1628:	b501      	push	{r0, lr}
    162a:	f7ff ffb7 	bl	159c <__cmpdf2>
    162e:	2800      	cmp	r0, #0
    1630:	bf48      	it	mi
    1632:	f110 0f00 	cmnmi.w	r0, #0
    1636:	bd01      	pop	{r0, pc}

00001638 <__aeabi_dcmpeq>:
__aeabi_dcmpeq():
    1638:	f84d ed08 	str.w	lr, [sp, #-8]!
    163c:	f7ff fff4 	bl	1628 <__aeabi_cdcmpeq>
    1640:	bf0c      	ite	eq
    1642:	2001      	moveq	r0, #1
    1644:	2000      	movne	r0, #0
    1646:	f85d fb08 	ldr.w	pc, [sp], #8
    164a:	bf00      	nop

0000164c <__aeabi_dcmplt>:
__aeabi_dcmplt():
    164c:	f84d ed08 	str.w	lr, [sp, #-8]!
    1650:	f7ff ffea 	bl	1628 <__aeabi_cdcmpeq>
    1654:	bf34      	ite	cc
    1656:	2001      	movcc	r0, #1
    1658:	2000      	movcs	r0, #0
    165a:	f85d fb08 	ldr.w	pc, [sp], #8
    165e:	bf00      	nop

00001660 <__aeabi_dcmple>:
__aeabi_dcmple():
    1660:	f84d ed08 	str.w	lr, [sp, #-8]!
    1664:	f7ff ffe0 	bl	1628 <__aeabi_cdcmpeq>
    1668:	bf94      	ite	ls
    166a:	2001      	movls	r0, #1
    166c:	2000      	movhi	r0, #0
    166e:	f85d fb08 	ldr.w	pc, [sp], #8
    1672:	bf00      	nop

00001674 <__aeabi_dcmpge>:
__aeabi_dcmpge():
    1674:	f84d ed08 	str.w	lr, [sp, #-8]!
    1678:	f7ff ffce 	bl	1618 <__aeabi_cdrcmple>
    167c:	bf94      	ite	ls
    167e:	2001      	movls	r0, #1
    1680:	2000      	movhi	r0, #0
    1682:	f85d fb08 	ldr.w	pc, [sp], #8
    1686:	bf00      	nop

00001688 <__aeabi_dcmpgt>:
__aeabi_dcmpgt():
    1688:	f84d ed08 	str.w	lr, [sp, #-8]!
    168c:	f7ff ffc4 	bl	1618 <__aeabi_cdrcmple>
    1690:	bf34      	ite	cc
    1692:	2001      	movcc	r0, #1
    1694:	2000      	movcs	r0, #0
    1696:	f85d fb08 	ldr.w	pc, [sp], #8
    169a:	bf00      	nop

0000169c <isr_uart5_re>:
isr_uart5_re():
D:\IntelligentVehicleProjects\K60_SmartCar_20160411\Debug/../08_Sources/isr.c:54
	    EnableInterrupts;
}


void isr_uart5_re(void)
{
    169c:	b580      	push	{r7, lr}
    169e:	b082      	sub	sp, #8
    16a0:	af00      	add	r7, sp, #0
D:\IntelligentVehicleProjects\K60_SmartCar_20160411\Debug/../08_Sources/isr.c:56
	    uint8_t ch;
	    uint8_t flag = 1;
    16a2:	2301      	movs	r3, #1
    16a4:	71bb      	strb	r3, [r7, #6]
D:\IntelligentVehicleProjects\K60_SmartCar_20160411\Debug/../08_Sources/isr.c:58

	    DisableInterrupts;
    16a6:	b672      	cpsid	i
D:\IntelligentVehicleProjects\K60_SmartCar_20160411\Debug/../08_Sources/isr.c:60

	    ch = uart_re1(UART_5, &flag);
    16a8:	1dbb      	adds	r3, r7, #6
    16aa:	2005      	movs	r0, #5
    16ac:	4619      	mov	r1, r3
    16ae:	f000 fdc5 	bl	223c <uart_re1>
    16b2:	4603      	mov	r3, r0
    16b4:	71fb      	strb	r3, [r7, #7]
D:\IntelligentVehicleProjects\K60_SmartCar_20160411\Debug/../08_Sources/isr.c:66
	    if (0 == flag)
	    {
//	        uart_send1(UART_5, ch);
	    }

	    EnableInterrupts;
    16b6:	b662      	cpsie	i
D:\IntelligentVehicleProjects\K60_SmartCar_20160411\Debug/../08_Sources/isr.c:67
}
    16b8:	3708      	adds	r7, #8
    16ba:	46bd      	mov	sp, r7
    16bc:	bd80      	pop	{r7, pc}
    16be:	bf00      	nop

000016c0 <pit0_isr>:
pit0_isr():
D:\IntelligentVehicleProjects\K60_SmartCar_20160411\Debug/../08_Sources/isr.c:82
extern uint8_t TIME0flag_15ms  ;
extern uint8_t TIME0flag_20ms  ;
extern uint16_t TIME0flag_100ms ;
extern uint32_t TIME0flag_1s ;
void pit0_isr(void)
{
    16c0:	b580      	push	{r7, lr}
    16c2:	af00      	add	r7, sp, #0
D:\IntelligentVehicleProjects\K60_SmartCar_20160411\Debug/../08_Sources/isr.c:89
		static uint8_t TimerCnt10ms = 0;
		static uint8_t TimerCnt15ms = 0;
		static uint8_t TimerCnt20ms = 0;
		static uint16_t TimerCnt100ms = 0;
		static uint32_t TimerCnt1s=0;
		enter_critical(); //,
    16c4:	f000 f99e 	bl	1a04 <enter_critical>
D:\IntelligentVehicleProjects\K60_SmartCar_20160411\Debug/../08_Sources/isr.c:90
		if ((PIT_TFLG(PIT0) & PIT_TFLG_TIF_MASK) == PIT_TFLG_TIF_MASK)
    16c8:	4b38      	ldr	r3, [pc, #224]	; (17ac <pit0_isr+0xec>)
    16ca:	f8d3 310c 	ldr.w	r3, [r3, #268]	; 0x10c
    16ce:	f003 0301 	and.w	r3, r3, #1
    16d2:	2b00      	cmp	r3, #0
    16d4:	d007      	beq.n	16e6 <pit0_isr+0x26>
D:\IntelligentVehicleProjects\K60_SmartCar_20160411\Debug/../08_Sources/isr.c:92
		{
			PIT_TFLG(PIT0) |= PIT_TFLG_TIF_MASK;       //
    16d6:	4b35      	ldr	r3, [pc, #212]	; (17ac <pit0_isr+0xec>)
    16d8:	4a34      	ldr	r2, [pc, #208]	; (17ac <pit0_isr+0xec>)
    16da:	f8d2 210c 	ldr.w	r2, [r2, #268]	; 0x10c
    16de:	f042 0201 	orr.w	r2, r2, #1
    16e2:	f8c3 210c 	str.w	r2, [r3, #268]	; 0x10c
D:\IntelligentVehicleProjects\K60_SmartCar_20160411\Debug/../08_Sources/isr.c:95
		}

		TimerCnt5ms++;
    16e6:	4b32      	ldr	r3, [pc, #200]	; (17b0 <pit0_isr+0xf0>)
    16e8:	781b      	ldrb	r3, [r3, #0]
    16ea:	3301      	adds	r3, #1
    16ec:	b2da      	uxtb	r2, r3
    16ee:	4b30      	ldr	r3, [pc, #192]	; (17b0 <pit0_isr+0xf0>)
    16f0:	701a      	strb	r2, [r3, #0]
D:\IntelligentVehicleProjects\K60_SmartCar_20160411\Debug/../08_Sources/isr.c:96
		TimerCnt10ms++;
    16f2:	4b30      	ldr	r3, [pc, #192]	; (17b4 <pit0_isr+0xf4>)
    16f4:	781b      	ldrb	r3, [r3, #0]
    16f6:	3301      	adds	r3, #1
    16f8:	b2da      	uxtb	r2, r3
    16fa:	4b2e      	ldr	r3, [pc, #184]	; (17b4 <pit0_isr+0xf4>)
    16fc:	701a      	strb	r2, [r3, #0]
D:\IntelligentVehicleProjects\K60_SmartCar_20160411\Debug/../08_Sources/isr.c:97
		TimerCnt15ms++;
    16fe:	4b2e      	ldr	r3, [pc, #184]	; (17b8 <pit0_isr+0xf8>)
    1700:	781b      	ldrb	r3, [r3, #0]
    1702:	3301      	adds	r3, #1
    1704:	b2da      	uxtb	r2, r3
    1706:	4b2c      	ldr	r3, [pc, #176]	; (17b8 <pit0_isr+0xf8>)
    1708:	701a      	strb	r2, [r3, #0]
D:\IntelligentVehicleProjects\K60_SmartCar_20160411\Debug/../08_Sources/isr.c:98
		TimerCnt20ms++;
    170a:	4b2c      	ldr	r3, [pc, #176]	; (17bc <pit0_isr+0xfc>)
    170c:	781b      	ldrb	r3, [r3, #0]
    170e:	3301      	adds	r3, #1
    1710:	b2da      	uxtb	r2, r3
    1712:	4b2a      	ldr	r3, [pc, #168]	; (17bc <pit0_isr+0xfc>)
    1714:	701a      	strb	r2, [r3, #0]
D:\IntelligentVehicleProjects\K60_SmartCar_20160411\Debug/../08_Sources/isr.c:99
		TimerCnt100ms++;
    1716:	4b2a      	ldr	r3, [pc, #168]	; (17c0 <pit0_isr+0x100>)
    1718:	881b      	ldrh	r3, [r3, #0]
    171a:	3301      	adds	r3, #1
    171c:	b29a      	uxth	r2, r3
    171e:	4b28      	ldr	r3, [pc, #160]	; (17c0 <pit0_isr+0x100>)
    1720:	801a      	strh	r2, [r3, #0]
D:\IntelligentVehicleProjects\K60_SmartCar_20160411\Debug/../08_Sources/isr.c:100
		TimerCnt1s++;
    1722:	4b28      	ldr	r3, [pc, #160]	; (17c4 <pit0_isr+0x104>)
    1724:	681b      	ldr	r3, [r3, #0]
    1726:	1c5a      	adds	r2, r3, #1
    1728:	4b26      	ldr	r3, [pc, #152]	; (17c4 <pit0_isr+0x104>)
    172a:	601a      	str	r2, [r3, #0]
D:\IntelligentVehicleProjects\K60_SmartCar_20160411\Debug/../08_Sources/isr.c:102

		if (TimerCnt5ms >= 1)
    172c:	4b20      	ldr	r3, [pc, #128]	; (17b0 <pit0_isr+0xf0>)
    172e:	781b      	ldrb	r3, [r3, #0]
    1730:	2b00      	cmp	r3, #0
    1732:	d005      	beq.n	1740 <pit0_isr+0x80>
D:\IntelligentVehicleProjects\K60_SmartCar_20160411\Debug/../08_Sources/isr.c:104
		{
			TimerCnt5ms = 0;
    1734:	4b1e      	ldr	r3, [pc, #120]	; (17b0 <pit0_isr+0xf0>)
    1736:	2200      	movs	r2, #0
    1738:	701a      	strb	r2, [r3, #0]
D:\IntelligentVehicleProjects\K60_SmartCar_20160411\Debug/../08_Sources/isr.c:105
			TIME0flag_5ms = 1;
    173a:	4b23      	ldr	r3, [pc, #140]	; (17c8 <pit0_isr+0x108>)
    173c:	2201      	movs	r2, #1
    173e:	701a      	strb	r2, [r3, #0]
D:\IntelligentVehicleProjects\K60_SmartCar_20160411\Debug/../08_Sources/isr.c:107
		}//5ms
		if (TimerCnt10ms >= 2)
    1740:	4b1c      	ldr	r3, [pc, #112]	; (17b4 <pit0_isr+0xf4>)
    1742:	781b      	ldrb	r3, [r3, #0]
    1744:	2b01      	cmp	r3, #1
    1746:	d905      	bls.n	1754 <pit0_isr+0x94>
D:\IntelligentVehicleProjects\K60_SmartCar_20160411\Debug/../08_Sources/isr.c:109
		{
			TimerCnt10ms = 0;
    1748:	4b1a      	ldr	r3, [pc, #104]	; (17b4 <pit0_isr+0xf4>)
    174a:	2200      	movs	r2, #0
    174c:	701a      	strb	r2, [r3, #0]
D:\IntelligentVehicleProjects\K60_SmartCar_20160411\Debug/../08_Sources/isr.c:110
			TIME0flag_10ms = 1;
    174e:	4b1f      	ldr	r3, [pc, #124]	; (17cc <pit0_isr+0x10c>)
    1750:	2201      	movs	r2, #1
    1752:	701a      	strb	r2, [r3, #0]
D:\IntelligentVehicleProjects\K60_SmartCar_20160411\Debug/../08_Sources/isr.c:112
		}//10ms
		if (TimerCnt15ms >= 3)
    1754:	4b18      	ldr	r3, [pc, #96]	; (17b8 <pit0_isr+0xf8>)
    1756:	781b      	ldrb	r3, [r3, #0]
    1758:	2b02      	cmp	r3, #2
    175a:	d905      	bls.n	1768 <pit0_isr+0xa8>
D:\IntelligentVehicleProjects\K60_SmartCar_20160411\Debug/../08_Sources/isr.c:114
		{
			TimerCnt15ms = 0;
    175c:	4b16      	ldr	r3, [pc, #88]	; (17b8 <pit0_isr+0xf8>)
    175e:	2200      	movs	r2, #0
    1760:	701a      	strb	r2, [r3, #0]
D:\IntelligentVehicleProjects\K60_SmartCar_20160411\Debug/../08_Sources/isr.c:115
			TIME0flag_15ms = 1;
    1762:	4b1b      	ldr	r3, [pc, #108]	; (17d0 <pit0_isr+0x110>)
    1764:	2201      	movs	r2, #1
    1766:	701a      	strb	r2, [r3, #0]
D:\IntelligentVehicleProjects\K60_SmartCar_20160411\Debug/../08_Sources/isr.c:117
		}//15ms
		if (TimerCnt20ms >= 4)
    1768:	4b14      	ldr	r3, [pc, #80]	; (17bc <pit0_isr+0xfc>)
    176a:	781b      	ldrb	r3, [r3, #0]
    176c:	2b03      	cmp	r3, #3
    176e:	d905      	bls.n	177c <pit0_isr+0xbc>
D:\IntelligentVehicleProjects\K60_SmartCar_20160411\Debug/../08_Sources/isr.c:119
		{
			TimerCnt20ms = 0;
    1770:	4b12      	ldr	r3, [pc, #72]	; (17bc <pit0_isr+0xfc>)
    1772:	2200      	movs	r2, #0
    1774:	701a      	strb	r2, [r3, #0]
D:\IntelligentVehicleProjects\K60_SmartCar_20160411\Debug/../08_Sources/isr.c:120
			TIME0flag_20ms = 1;
    1776:	4b17      	ldr	r3, [pc, #92]	; (17d4 <pit0_isr+0x114>)
    1778:	2201      	movs	r2, #1
    177a:	701a      	strb	r2, [r3, #0]
D:\IntelligentVehicleProjects\K60_SmartCar_20160411\Debug/../08_Sources/isr.c:122
		}//20ms
		if (TimerCnt100ms >= 20)
    177c:	4b10      	ldr	r3, [pc, #64]	; (17c0 <pit0_isr+0x100>)
    177e:	881b      	ldrh	r3, [r3, #0]
    1780:	2b13      	cmp	r3, #19
    1782:	d905      	bls.n	1790 <pit0_isr+0xd0>
D:\IntelligentVehicleProjects\K60_SmartCar_20160411\Debug/../08_Sources/isr.c:124
		{
			TimerCnt100ms = 0;
    1784:	4b0e      	ldr	r3, [pc, #56]	; (17c0 <pit0_isr+0x100>)
    1786:	2200      	movs	r2, #0
    1788:	801a      	strh	r2, [r3, #0]
D:\IntelligentVehicleProjects\K60_SmartCar_20160411\Debug/../08_Sources/isr.c:125
			TIME0flag_100ms = 1;
    178a:	4b13      	ldr	r3, [pc, #76]	; (17d8 <pit0_isr+0x118>)
    178c:	2201      	movs	r2, #1
    178e:	801a      	strh	r2, [r3, #0]
D:\IntelligentVehicleProjects\K60_SmartCar_20160411\Debug/../08_Sources/isr.c:127
		}//100ms
		if (TimerCnt1s >= 200)
    1790:	4b0c      	ldr	r3, [pc, #48]	; (17c4 <pit0_isr+0x104>)
    1792:	681b      	ldr	r3, [r3, #0]
    1794:	2bc7      	cmp	r3, #199	; 0xc7
    1796:	d905      	bls.n	17a4 <pit0_isr+0xe4>
D:\IntelligentVehicleProjects\K60_SmartCar_20160411\Debug/../08_Sources/isr.c:129
		{
			TimerCnt1s = 0;
    1798:	4b0a      	ldr	r3, [pc, #40]	; (17c4 <pit0_isr+0x104>)
    179a:	2200      	movs	r2, #0
    179c:	601a      	str	r2, [r3, #0]
D:\IntelligentVehicleProjects\K60_SmartCar_20160411\Debug/../08_Sources/isr.c:130
			TIME0flag_1s = 1;
    179e:	4b0f      	ldr	r3, [pc, #60]	; (17dc <pit0_isr+0x11c>)
    17a0:	2201      	movs	r2, #1
    17a2:	601a      	str	r2, [r3, #0]
D:\IntelligentVehicleProjects\K60_SmartCar_20160411\Debug/../08_Sources/isr.c:133
		}//1s

		exit_critical(); //,
    17a4:	f000 f940 	bl	1a28 <exit_critical>
D:\IntelligentVehicleProjects\K60_SmartCar_20160411\Debug/../08_Sources/isr.c:134
}
    17a8:	bd80      	pop	{r7, pc}
    17aa:	bf00      	nop
    17ac:	40037000 	.word	0x40037000
    17b0:	1fff008c 	.word	0x1fff008c
    17b4:	1fff008d 	.word	0x1fff008d
    17b8:	1fff008e 	.word	0x1fff008e
    17bc:	1fff008f 	.word	0x1fff008f
    17c0:	1fff0090 	.word	0x1fff0090
    17c4:	1fff0094 	.word	0x1fff0094
    17c8:	1fff00f1 	.word	0x1fff00f1
    17cc:	1fff0136 	.word	0x1fff0136
    17d0:	1fff011c 	.word	0x1fff011c
    17d4:	1fff0120 	.word	0x1fff0120
    17d8:	1fff012c 	.word	0x1fff012c
    17dc:	1fff013c 	.word	0x1fff013c

000017e0 <PORTD_isr>:
PORTD_isr():
D:\IntelligentVehicleProjects\K60_SmartCar_20160411\Debug/../08_Sources/isr.c:147
int16_t LeftSpeedC, RightSpeedC;
int16_t RunCount;
extern uint8_t run_flag, Runstop;
//GPIO
void PORTD_isr()
{
    17e0:	b480      	push	{r7}
    17e2:	b083      	sub	sp, #12
    17e4:	af00      	add	r7, sp, #0
D:\IntelligentVehicleProjects\K60_SmartCar_20160411\Debug/../08_Sources/isr.c:150
	uint8_t  n;    //

	n = (uint8_t)(SPEED_PINL & 0x0F);  //
    17e6:	2301      	movs	r3, #1
    17e8:	71fb      	strb	r3, [r7, #7]
D:\IntelligentVehicleProjects\K60_SmartCar_20160411\Debug/../08_Sources/isr.c:151
    if(PORTD_ISFR & (1 << n))         //
    17ea:	4b1f      	ldr	r3, [pc, #124]	; (1868 <PORTD_isr+0x88>)
    17ec:	f8d3 20a0 	ldr.w	r2, [r3, #160]	; 0xa0
    17f0:	79fb      	ldrb	r3, [r7, #7]
    17f2:	2101      	movs	r1, #1
    17f4:	fa01 f303 	lsl.w	r3, r1, r3
    17f8:	4013      	ands	r3, r2
    17fa:	2b00      	cmp	r3, #0
    17fc:	d011      	beq.n	1822 <PORTD_isr+0x42>
D:\IntelligentVehicleProjects\K60_SmartCar_20160411\Debug/../08_Sources/isr.c:153
    {
        PORTD_ISFR  |= (1 << n);        //1
    17fe:	4b1a      	ldr	r3, [pc, #104]	; (1868 <PORTD_isr+0x88>)
    1800:	4a19      	ldr	r2, [pc, #100]	; (1868 <PORTD_isr+0x88>)
    1802:	f8d2 10a0 	ldr.w	r1, [r2, #160]	; 0xa0
    1806:	79fa      	ldrb	r2, [r7, #7]
    1808:	2001      	movs	r0, #1
    180a:	fa00 f202 	lsl.w	r2, r0, r2
    180e:	430a      	orrs	r2, r1
    1810:	f8c3 20a0 	str.w	r2, [r3, #160]	; 0xa0
D:\IntelligentVehicleProjects\K60_SmartCar_20160411\Debug/../08_Sources/isr.c:154
        LeftSpeedC ++ ;
    1814:	4b15      	ldr	r3, [pc, #84]	; (186c <PORTD_isr+0x8c>)
    1816:	881b      	ldrh	r3, [r3, #0]
    1818:	b29b      	uxth	r3, r3
    181a:	3301      	adds	r3, #1
    181c:	b29a      	uxth	r2, r3
    181e:	4b13      	ldr	r3, [pc, #76]	; (186c <PORTD_isr+0x8c>)
    1820:	801a      	strh	r2, [r3, #0]
D:\IntelligentVehicleProjects\K60_SmartCar_20160411\Debug/../08_Sources/isr.c:156
    }
    n = (uint8_t)(SPEED_PINR & 0x0F);  //
    1822:	2302      	movs	r3, #2
    1824:	71fb      	strb	r3, [r7, #7]
D:\IntelligentVehicleProjects\K60_SmartCar_20160411\Debug/../08_Sources/isr.c:157
    if(PORTD_ISFR & (1 << n))         //
    1826:	4b10      	ldr	r3, [pc, #64]	; (1868 <PORTD_isr+0x88>)
    1828:	f8d3 20a0 	ldr.w	r2, [r3, #160]	; 0xa0
    182c:	79fb      	ldrb	r3, [r7, #7]
    182e:	2101      	movs	r1, #1
    1830:	fa01 f303 	lsl.w	r3, r1, r3
    1834:	4013      	ands	r3, r2
    1836:	2b00      	cmp	r3, #0
    1838:	d011      	beq.n	185e <PORTD_isr+0x7e>
D:\IntelligentVehicleProjects\K60_SmartCar_20160411\Debug/../08_Sources/isr.c:159
    {
        PORTD_ISFR  |= (1 << n);        //1
    183a:	4b0b      	ldr	r3, [pc, #44]	; (1868 <PORTD_isr+0x88>)
    183c:	4a0a      	ldr	r2, [pc, #40]	; (1868 <PORTD_isr+0x88>)
    183e:	f8d2 10a0 	ldr.w	r1, [r2, #160]	; 0xa0
    1842:	79fa      	ldrb	r2, [r7, #7]
    1844:	2001      	movs	r0, #1
    1846:	fa00 f202 	lsl.w	r2, r0, r2
    184a:	430a      	orrs	r2, r1
    184c:	f8c3 20a0 	str.w	r2, [r3, #160]	; 0xa0
D:\IntelligentVehicleProjects\K60_SmartCar_20160411\Debug/../08_Sources/isr.c:160
        RightSpeedC ++ ;
    1850:	4b07      	ldr	r3, [pc, #28]	; (1870 <PORTD_isr+0x90>)
    1852:	881b      	ldrh	r3, [r3, #0]
    1854:	b29b      	uxth	r3, r3
    1856:	3301      	adds	r3, #1
    1858:	b29a      	uxth	r2, r3
    185a:	4b05      	ldr	r3, [pc, #20]	; (1870 <PORTD_isr+0x90>)
    185c:	801a      	strh	r2, [r3, #0]
D:\IntelligentVehicleProjects\K60_SmartCar_20160411\Debug/../08_Sources/isr.c:162
    }
}
    185e:	370c      	adds	r7, #12
    1860:	46bd      	mov	sp, r7
    1862:	f85d 7b04 	ldr.w	r7, [sp], #4
    1866:	4770      	bx	lr
    1868:	4004c000 	.word	0x4004c000
    186c:	1fff00e4 	.word	0x1fff00e4
    1870:	1fff00e6 	.word	0x1fff00e6

00001874 <main>:
main():
D:\IntelligentVehicleProjects\K60_SmartCar_20160411\Debug/../08_Sources/main.c:61
int8_t TurnPriodCt;
uint16_t RunCountLast, RunCountLast1;
extern uint16_t RunCount, RunCount1;
uint8_t run_flag,Runstop;

int main(void) {
    1874:	b5b0      	push	{r4, r5, r7, lr}
    1876:	b086      	sub	sp, #24
    1878:	af00      	add	r7, sp, #0
D:\IntelligentVehicleProjects\K60_SmartCar_20160411\Debug/../08_Sources/main.c:69
//	uint8_t duty;
	uint8_t countgo;
	uint16_t ADValue[2];
	float GyroAngle, AcceValue, car_Angle[2];
	//2. 
	DISABLE_INTERRUPTS
    187a:	b672      	cpsid	i
D:\IntelligentVehicleProjects\K60_SmartCar_20160411\Debug/../08_Sources/main.c:72
	;
	//3. 
	light_init(RUN_LIGHT1, Light_ON); //1
    187c:	f240 3003 	movw	r0, #771	; 0x303
    1880:	2100      	movs	r1, #0
    1882:	f000 f913 	bl	1aac <light_init>
D:\IntelligentVehicleProjects\K60_SmartCar_20160411\Debug/../08_Sources/main.c:73
	light_init(RUN_LIGHT2, Light_ON); //2
    1886:	f44f 7041 	mov.w	r0, #772	; 0x304
    188a:	2100      	movs	r1, #0
    188c:	f000 f90e 	bl	1aac <light_init>
D:\IntelligentVehicleProjects\K60_SmartCar_20160411\Debug/../08_Sources/main.c:74
	uart_init(UART_TEST, 115200);     //uart5
    1890:	2005      	movs	r0, #5
    1892:	f44f 31e1 	mov.w	r1, #115200	; 0x1c200
    1896:	f000 fbbb 	bl	2010 <uart_init>
D:\IntelligentVehicleProjects\K60_SmartCar_20160411\Debug/../08_Sources/main.c:75
	pit_init(PIT0, BUS_CLK_KHz * 5);  //pit01s
    189a:	2000      	movs	r0, #0
    189c:	494a      	ldr	r1, [pc, #296]	; (19c8 <main+0x154>)
    189e:	f000 fedf 	bl	2660 <pit_init>
D:\IntelligentVehicleProjects\K60_SmartCar_20160411\Debug/../08_Sources/main.c:78
//	pwm_init(FTM0, FTMCH0,1000,0);
//	pwm_init(FTM0, FTMCH1,100,0);
	motor_init(MOTOR1);
    18a2:	2000      	movs	r0, #0
    18a4:	f000 f8d6 	bl	1a54 <motor_init>
D:\IntelligentVehicleProjects\K60_SmartCar_20160411\Debug/../08_Sources/main.c:79
	motor_init(MOTOR2);
    18a8:	2001      	movs	r0, #1
    18aa:	f000 f8d3 	bl	1a54 <motor_init>
D:\IntelligentVehicleProjects\K60_SmartCar_20160411\Debug/../08_Sources/main.c:80
	GyroAcce_init();
    18ae:	f000 f91b 	bl	1ae8 <GyroAcce_init>
D:\IntelligentVehicleProjects\K60_SmartCar_20160411\Debug/../08_Sources/main.c:84
	//4. 
//	duty = 0;
//	mRuncount = 0;      //
	count = 0;
    18b2:	4b46      	ldr	r3, [pc, #280]	; (19cc <main+0x158>)
    18b4:	2200      	movs	r2, #0
    18b6:	801a      	strh	r2, [r3, #0]
D:\IntelligentVehicleProjects\K60_SmartCar_20160411\Debug/../08_Sources/main.c:89

	/***********
	 
	 ***********/
	SpeedAD = 50 ;
    18b8:	4b45      	ldr	r3, [pc, #276]	; (19d0 <main+0x15c>)
    18ba:	2232      	movs	r2, #50	; 0x32
    18bc:	801a      	strh	r2, [r3, #0]
D:\IntelligentVehicleProjects\K60_SmartCar_20160411\Debug/../08_Sources/main.c:93
	/***********
	 PID
	 ***********/
	Angle_P = 0.008;  //0.005
    18be:	4b45      	ldr	r3, [pc, #276]	; (19d4 <main+0x160>)
    18c0:	4a45      	ldr	r2, [pc, #276]	; (19d8 <main+0x164>)
    18c2:	601a      	str	r2, [r3, #0]
D:\IntelligentVehicleProjects\K60_SmartCar_20160411\Debug/../08_Sources/main.c:94
	Angle_D = 0.005;  //0.005
    18c4:	4b45      	ldr	r3, [pc, #276]	; (19dc <main+0x168>)
    18c6:	4a46      	ldr	r2, [pc, #280]	; (19e0 <main+0x16c>)
    18c8:	601a      	str	r2, [r3, #0]
D:\IntelligentVehicleProjects\K60_SmartCar_20160411\Debug/../08_Sources/main.c:95
	Speed_P = 0; //55
    18ca:	4b46      	ldr	r3, [pc, #280]	; (19e4 <main+0x170>)
    18cc:	2200      	movs	r2, #0
    18ce:	601a      	str	r2, [r3, #0]
D:\IntelligentVehicleProjects\K60_SmartCar_20160411\Debug/../08_Sources/main.c:96
	Speed_I = 0;  //20
    18d0:	4b45      	ldr	r3, [pc, #276]	; (19e8 <main+0x174>)
    18d2:	2200      	movs	r2, #0
    18d4:	601a      	str	r2, [r3, #0]
D:\IntelligentVehicleProjects\K60_SmartCar_20160411\Debug/../08_Sources/main.c:97
	Speed_D = 0;
    18d6:	4b45      	ldr	r3, [pc, #276]	; (19ec <main+0x178>)
    18d8:	2200      	movs	r2, #0
    18da:	601a      	str	r2, [r3, #0]
D:\IntelligentVehicleProjects\K60_SmartCar_20160411\Debug/../08_Sources/main.c:100

	//5. 
	enable_pit_int(PIT0);   //pit
    18dc:	2000      	movs	r0, #0
    18de:	f000 ff0d 	bl	26fc <enable_pit_int>
D:\IntelligentVehicleProjects\K60_SmartCar_20160411\Debug/../08_Sources/main.c:101
	uart_enable_re_int(UART_TEST);   //uart5
    18e2:	2005      	movs	r0, #5
    18e4:	f000 fce2 	bl	22ac <uart_enable_re_int>
D:\IntelligentVehicleProjects\K60_SmartCar_20160411\Debug/../08_Sources/main.c:103
	//6. 
	ENABLE_INTERRUPTS;
    18e8:	b662      	cpsie	i
D:\IntelligentVehicleProjects\K60_SmartCar_20160411\Debug/../08_Sources/main.c:109

	//
	//==================================================================
	for (;;) 
	{
		mRuncount++;
    18ea:	697b      	ldr	r3, [r7, #20]
    18ec:	3301      	adds	r3, #1
    18ee:	617b      	str	r3, [r7, #20]
D:\IntelligentVehicleProjects\K60_SmartCar_20160411\Debug/../08_Sources/main.c:110
		if (mRuncount > RUN_COUNTER_MAX)
    18f0:	697a      	ldr	r2, [r7, #20]
    18f2:	4b3f      	ldr	r3, [pc, #252]	; (19f0 <main+0x17c>)
    18f4:	429a      	cmp	r2, r3
    18f6:	d905      	bls.n	1904 <main+0x90>
D:\IntelligentVehicleProjects\K60_SmartCar_20160411\Debug/../08_Sources/main.c:112
		{
			mRuncount=0;		   //
    18f8:	2300      	movs	r3, #0
    18fa:	617b      	str	r3, [r7, #20]
D:\IntelligentVehicleProjects\K60_SmartCar_20160411\Debug/../08_Sources/main.c:113
			light_change(RUN_LIGHT1);      //RUN_LIGHT_BLUE
    18fc:	f240 3003 	movw	r0, #771	; 0x303
    1900:	f000 f8e6 	bl	1ad0 <light_change>
D:\IntelligentVehicleProjects\K60_SmartCar_20160411\Debug/../08_Sources/main.c:116
		}

		if (TIME0flag_5ms == 1)    // 5mS IF
    1904:	4b3b      	ldr	r3, [pc, #236]	; (19f4 <main+0x180>)
    1906:	781b      	ldrb	r3, [r3, #0]
    1908:	2b01      	cmp	r3, #1
    190a:	d15c      	bne.n	19c6 <main+0x152>
D:\IntelligentVehicleProjects\K60_SmartCar_20160411\Debug/../08_Sources/main.c:118
		{
			TIME0flag_5ms = 0;
    190c:	4b39      	ldr	r3, [pc, #228]	; (19f4 <main+0x180>)
    190e:	2200      	movs	r2, #0
    1910:	701a      	strb	r2, [r3, #0]
D:\IntelligentVehicleProjects\K60_SmartCar_20160411\Debug/../08_Sources/main.c:121

			//AD
			AAngAcceCount = GyroAcce_getAD(ADValue, AAngAcceCount);
    1912:	4b39      	ldr	r3, [pc, #228]	; (19f8 <main+0x184>)
    1914:	781b      	ldrb	r3, [r3, #0]
    1916:	f107 0210 	add.w	r2, r7, #16
    191a:	4610      	mov	r0, r2
    191c:	4619      	mov	r1, r3
    191e:	f000 f8e9 	bl	1af4 <GyroAcce_getAD>
    1922:	4603      	mov	r3, r0
    1924:	461a      	mov	r2, r3
    1926:	4b34      	ldr	r3, [pc, #208]	; (19f8 <main+0x184>)
    1928:	701a      	strb	r2, [r3, #0]
D:\IntelligentVehicleProjects\K60_SmartCar_20160411\Debug/../08_Sources/main.c:139
//			uart_send1(5,ADValue[1] >> 8);
//			uart_send1(5,ADValue[1]);
//			uart_send1(5,0xff);
//
			//AD,/s,m/s^2
			ADToGyroAccePHY(ADValue, &GyroAngle, &AcceValue);
    192a:	f107 0110 	add.w	r1, r7, #16
    192e:	f107 020c 	add.w	r2, r7, #12
    1932:	f107 0308 	add.w	r3, r7, #8
    1936:	4608      	mov	r0, r1
    1938:	4611      	mov	r1, r2
    193a:	461a      	mov	r2, r3
    193c:	f000 faf4 	bl	1f28 <ADToGyroAccePHY>
D:\IntelligentVehicleProjects\K60_SmartCar_20160411\Debug/../08_Sources/main.c:145
//			//,
//			uart_send1(5,(int)GyroAngle);
//			uart_send1(5,(int)(AcceValue*g));

			//,/s
			GyroAccePHYToAngle(&GyroAngle, &AcceValue, car_Angle);
    1940:	f107 010c 	add.w	r1, r7, #12
    1944:	f107 0208 	add.w	r2, r7, #8
    1948:	463b      	mov	r3, r7
    194a:	4608      	mov	r0, r1
    194c:	4611      	mov	r1, r2
    194e:	461a      	mov	r2, r3
    1950:	f000 f8f2 	bl	1b38 <GyroAccePHYToAngle>
D:\IntelligentVehicleProjects\K60_SmartCar_20160411\Debug/../08_Sources/main.c:160
//			OutData[1] = car_Angle[1];				//
//			OutData[2] = AcceValue / g * 180 / PI;	//
//			OutData[3] = GyroAngle;					//
//			OutPut_Data(OutData);
//
			uart_send1(5,(int)car_Angle[0]);
    1954:	683b      	ldr	r3, [r7, #0]
    1956:	4618      	mov	r0, r3
    1958:	f7ff fdf2 	bl	1540 <__aeabi_f2iz>
    195c:	4603      	mov	r3, r0
    195e:	b2db      	uxtb	r3, r3
    1960:	2005      	movs	r0, #5
    1962:	4619      	mov	r1, r3
    1964:	f000 fc38 	bl	21d8 <uart_send1>
D:\IntelligentVehicleProjects\K60_SmartCar_20160411\Debug/../08_Sources/main.c:161
			uart_send1(5,(int)(asin(AcceValue) * 180 / PI));
    1968:	68bb      	ldr	r3, [r7, #8]
    196a:	4618      	mov	r0, r3
    196c:	f7ff f8ac 	bl	ac8 <__aeabi_f2d>
    1970:	4602      	mov	r2, r0
    1972:	460b      	mov	r3, r1
    1974:	4610      	mov	r0, r2
    1976:	4619      	mov	r1, r3
    1978:	f001 fc5e 	bl	3238 <asin>
    197c:	4602      	mov	r2, r0
    197e:	460b      	mov	r3, r1
    1980:	4610      	mov	r0, r2
    1982:	4619      	mov	r1, r3
    1984:	f04f 0200 	mov.w	r2, #0
    1988:	4b1c      	ldr	r3, [pc, #112]	; (19fc <main+0x188>)
    198a:	f7ff f8f1 	bl	b70 <__aeabi_dmul>
    198e:	4602      	mov	r2, r0
    1990:	460b      	mov	r3, r1
    1992:	4614      	mov	r4, r2
    1994:	461d      	mov	r5, r3
    1996:	4b1a      	ldr	r3, [pc, #104]	; (1a00 <main+0x18c>)
    1998:	681b      	ldr	r3, [r3, #0]
    199a:	4618      	mov	r0, r3
    199c:	f7ff f894 	bl	ac8 <__aeabi_f2d>
    19a0:	4602      	mov	r2, r0
    19a2:	460b      	mov	r3, r1
    19a4:	4620      	mov	r0, r4
    19a6:	4629      	mov	r1, r5
    19a8:	f7ff fa0c 	bl	dc4 <__aeabi_ddiv>
    19ac:	4602      	mov	r2, r0
    19ae:	460b      	mov	r3, r1
    19b0:	4610      	mov	r0, r2
    19b2:	4619      	mov	r1, r3
    19b4:	f7ff faee 	bl	f94 <__aeabi_d2iz>
    19b8:	4603      	mov	r3, r0
    19ba:	b2db      	uxtb	r3, r3
    19bc:	2005      	movs	r0, #5
    19be:	4619      	mov	r1, r3
    19c0:	f000 fc0a 	bl	21d8 <uart_send1>
D:\IntelligentVehicleProjects\K60_SmartCar_20160411\Debug/../08_Sources/main.c:253
//				RightSpeedC = 0;
//			}
//		}

		//--------------------------------------------------------
	} //end_for
    19c4:	e791      	b.n	18ea <main+0x76>
    19c6:	e790      	b.n	18ea <main+0x76>
    19c8:	0003a980 	.word	0x0003a980
    19cc:	1fff00ea 	.word	0x1fff00ea
    19d0:	1fff0112 	.word	0x1fff0112
    19d4:	1fff015c 	.word	0x1fff015c
    19d8:	3c03126f 	.word	0x3c03126f
    19dc:	1fff010c 	.word	0x1fff010c
    19e0:	3ba3d70a 	.word	0x3ba3d70a
    19e4:	1fff00f4 	.word	0x1fff00f4
    19e8:	1fff00ec 	.word	0x1fff00ec
    19ec:	1fff0128 	.word	0x1fff0128
    19f0:	0016e360 	.word	0x0016e360
    19f4:	1fff00f1 	.word	0x1fff00f1
    19f8:	1fff0108 	.word	0x1fff0108
    19fc:	40668000 	.word	0x40668000
    1a00:	1fff0000 	.word	0x1fff0000

00001a04 <enter_critical>:
enter_critical():
D:\IntelligentVehicleProjects\K60_SmartCar_20160411\Debug/../07_Soft_Component/common/common.c:33
//
//                           //(1).
//                             //ISR  
//=========================================================================
void  enter_critical(void)     //()
{                              //(2).(ISR?)+1;
    1a04:	b480      	push	{r7}
    1a06:	af00      	add	r7, sp, #0
D:\IntelligentVehicleProjects\K60_SmartCar_20160411\Debug/../07_Soft_Component/common/common.c:34
    if (0 == int_disable_level)//1
    1a08:	4b06      	ldr	r3, [pc, #24]	; (1a24 <enter_critical+0x20>)
    1a0a:	681b      	ldr	r3, [r3, #0]
    1a0c:	2b00      	cmp	r3, #0
    1a0e:	d100      	bne.n	1a12 <enter_critical+0xe>
D:\IntelligentVehicleProjects\K60_SmartCar_20160411\Debug/../07_Soft_Component/common/common.c:36
    {                          //enter_criticalISR()
        DISABLE_INTERRUPTS;    //(3).DISABLE_INTERRUPTSNMI(())ISR
    1a10:	b672      	cpsid	i
D:\IntelligentVehicleProjects\K60_SmartCar_20160411\Debug/../07_Soft_Component/common/common.c:38
    }                          //ISR?
    int_disable_level++;       //(4).2      2ISR
    1a12:	4b04      	ldr	r3, [pc, #16]	; (1a24 <enter_critical+0x20>)
    1a14:	681b      	ldr	r3, [r3, #0]
    1a16:	1c5a      	adds	r2, r3, #1
    1a18:	4b02      	ldr	r3, [pc, #8]	; (1a24 <enter_critical+0x20>)
    1a1a:	601a      	str	r2, [r3, #0]
D:\IntelligentVehicleProjects\K60_SmartCar_20160411\Debug/../07_Soft_Component/common/common.c:39
}                              //ISRISR(2)
    1a1c:	46bd      	mov	sp, r7
    1a1e:	f85d 7b04 	ldr.w	r7, [sp], #4
    1a22:	4770      	bx	lr
    1a24:	1fff0098 	.word	0x1fff0098

00001a28 <exit_critical>:
exit_critical():
D:\IntelligentVehicleProjects\K60_SmartCar_20160411\Debug/../07_Soft_Component/common/common.c:52
//
//
//
//=========================================================================
void  exit_critical(void)       //int_disable_levelISR
{                               // 
    1a28:	b480      	push	{r7}
    1a2a:	af00      	add	r7, sp, #0
D:\IntelligentVehicleProjects\K60_SmartCar_20160411\Debug/../07_Soft_Component/common/common.c:53
    if (int_disable_level)
    1a2c:	4b08      	ldr	r3, [pc, #32]	; (1a50 <exit_critical+0x28>)
    1a2e:	681b      	ldr	r3, [r3, #0]
    1a30:	2b00      	cmp	r3, #0
    1a32:	d009      	beq.n	1a48 <exit_critical+0x20>
D:\IntelligentVehicleProjects\K60_SmartCar_20160411\Debug/../07_Soft_Component/common/common.c:55
{
        int_disable_level--;
    1a34:	4b06      	ldr	r3, [pc, #24]	; (1a50 <exit_critical+0x28>)
    1a36:	681b      	ldr	r3, [r3, #0]
    1a38:	1e5a      	subs	r2, r3, #1
    1a3a:	4b05      	ldr	r3, [pc, #20]	; (1a50 <exit_critical+0x28>)
    1a3c:	601a      	str	r2, [r3, #0]
D:\IntelligentVehicleProjects\K60_SmartCar_20160411\Debug/../07_Soft_Component/common/common.c:56
        if (0 == int_disable_level)
    1a3e:	4b04      	ldr	r3, [pc, #16]	; (1a50 <exit_critical+0x28>)
    1a40:	681b      	ldr	r3, [r3, #0]
    1a42:	2b00      	cmp	r3, #0
    1a44:	d100      	bne.n	1a48 <exit_critical+0x20>
D:\IntelligentVehicleProjects\K60_SmartCar_20160411\Debug/../07_Soft_Component/common/common.c:58
        {
            ENABLE_INTERRUPTS;
    1a46:	b662      	cpsie	i
D:\IntelligentVehicleProjects\K60_SmartCar_20160411\Debug/../07_Soft_Component/common/common.c:61
        }
    }
}
    1a48:	46bd      	mov	sp, r7
    1a4a:	f85d 7b04 	ldr.w	r7, [sp], #4
    1a4e:	4770      	bx	lr
    1a50:	1fff0098 	.word	0x1fff0098

00001a54 <motor_init>:
motor_init():
D:\IntelligentVehicleProjects\K60_SmartCar_20160411\Debug/../06_App_Component/motor/motor.c:21
//motor: MOTOR_1MOTOR_2
//MOTOR_1
//      MOTOR1_PWM1MOTOR1_PWM2MOTOR_PERIOD0
//====================================================================
void motor_init(uint8_t motor)
{
    1a54:	b580      	push	{r7, lr}
    1a56:	b082      	sub	sp, #8
    1a58:	af00      	add	r7, sp, #0
    1a5a:	4603      	mov	r3, r0
    1a5c:	71fb      	strb	r3, [r7, #7]
D:\IntelligentVehicleProjects\K60_SmartCar_20160411\Debug/../06_App_Component/motor/motor.c:23
	//motor12
	if(motor == MOTOR1)  //1
    1a5e:	79fb      	ldrb	r3, [r7, #7]
    1a60:	2b00      	cmp	r3, #0
    1a62:	d10e      	bne.n	1a82 <motor_init+0x2e>
D:\IntelligentVehicleProjects\K60_SmartCar_20160411\Debug/../06_App_Component/motor/motor.c:25
	{
		pwm_init(MOTOR1_PWM1, MOTOR1_PWM1_CH, MOTOR_PERIOD, 0);
    1a64:	2000      	movs	r0, #0
    1a66:	2100      	movs	r1, #0
    1a68:	f44f 727a 	mov.w	r2, #1000	; 0x3e8
    1a6c:	2300      	movs	r3, #0
    1a6e:	f000 fc3d 	bl	22ec <pwm_init>
D:\IntelligentVehicleProjects\K60_SmartCar_20160411\Debug/../06_App_Component/motor/motor.c:26
		pwm_init(MOTOR1_PWM2, MOTOR1_PWM2_CH, MOTOR_PERIOD, 0);
    1a72:	2000      	movs	r0, #0
    1a74:	2101      	movs	r1, #1
    1a76:	f44f 727a 	mov.w	r2, #1000	; 0x3e8
    1a7a:	2300      	movs	r3, #0
    1a7c:	f000 fc36 	bl	22ec <pwm_init>
    1a80:	e010      	b.n	1aa4 <motor_init+0x50>
D:\IntelligentVehicleProjects\K60_SmartCar_20160411\Debug/../06_App_Component/motor/motor.c:28
	}
	else if(motor == MOTOR2)//2
    1a82:	79fb      	ldrb	r3, [r7, #7]
    1a84:	2b01      	cmp	r3, #1
    1a86:	d10d      	bne.n	1aa4 <motor_init+0x50>
D:\IntelligentVehicleProjects\K60_SmartCar_20160411\Debug/../06_App_Component/motor/motor.c:30
	{
		pwm_init(MOTOR2_PWM1, MOTOR2_PWM1_CH, MOTOR_PERIOD, 0);
    1a88:	2000      	movs	r0, #0
    1a8a:	2102      	movs	r1, #2
    1a8c:	f44f 727a 	mov.w	r2, #1000	; 0x3e8
    1a90:	2300      	movs	r3, #0
    1a92:	f000 fc2b 	bl	22ec <pwm_init>
D:\IntelligentVehicleProjects\K60_SmartCar_20160411\Debug/../06_App_Component/motor/motor.c:31
		pwm_init(MOTOR2_PWM2, MOTOR2_PWM2_CH, MOTOR_PERIOD, 0);
    1a96:	2000      	movs	r0, #0
    1a98:	2103      	movs	r1, #3
    1a9a:	f44f 727a 	mov.w	r2, #1000	; 0x3e8
    1a9e:	2300      	movs	r3, #0
    1aa0:	f000 fc24 	bl	22ec <pwm_init>
D:\IntelligentVehicleProjects\K60_SmartCar_20160411\Debug/../06_App_Component/motor/motor.c:34
	}

}
    1aa4:	3708      	adds	r7, #8
    1aa6:	46bd      	mov	sp, r7
    1aa8:	bd80      	pop	{r7, pc}
    1aaa:	bf00      	nop

00001aac <light_init>:
light_init():
D:\IntelligentVehicleProjects\K60_SmartCar_20160411\Debug/../06_App_Component/light/light.c:20
//       statelight.h
//
//
//===========================================================================
void light_init(uint16_t port_pin, uint8_t state)
{
    1aac:	b580      	push	{r7, lr}
    1aae:	b082      	sub	sp, #8
    1ab0:	af00      	add	r7, sp, #0
    1ab2:	4602      	mov	r2, r0
    1ab4:	460b      	mov	r3, r1
    1ab6:	80fa      	strh	r2, [r7, #6]
    1ab8:	717b      	strb	r3, [r7, #5]
D:\IntelligentVehicleProjects\K60_SmartCar_20160411\Debug/../06_App_Component/light/light.c:21
    gpio_init(port_pin, 1, state);
    1aba:	88fa      	ldrh	r2, [r7, #6]
    1abc:	797b      	ldrb	r3, [r7, #5]
    1abe:	4610      	mov	r0, r2
    1ac0:	2101      	movs	r1, #1
    1ac2:	461a      	mov	r2, r3
    1ac4:	f000 fe6a 	bl	279c <gpio_init>
D:\IntelligentVehicleProjects\K60_SmartCar_20160411\Debug/../06_App_Component/light/light.c:22
}
    1ac8:	3708      	adds	r7, #8
    1aca:	46bd      	mov	sp, r7
    1acc:	bd80      	pop	{r7, pc}
    1ace:	bf00      	nop

00001ad0 <light_change>:
light_change():
D:\IntelligentVehicleProjects\K60_SmartCar_20160411\Debug/../06_App_Component/light/light.c:43
//port_pin()|()(PORTB)|(6) B5
//
//
//===========================================================================
void light_change(uint16_t port_pin)
{
    1ad0:	b580      	push	{r7, lr}
    1ad2:	b082      	sub	sp, #8
    1ad4:	af00      	add	r7, sp, #0
    1ad6:	4603      	mov	r3, r0
    1ad8:	80fb      	strh	r3, [r7, #6]
D:\IntelligentVehicleProjects\K60_SmartCar_20160411\Debug/../06_App_Component/light/light.c:44
    gpio_reverse(port_pin);
    1ada:	88fb      	ldrh	r3, [r7, #6]
    1adc:	4618      	mov	r0, r3
    1ade:	f000 feed 	bl	28bc <gpio_reverse>
D:\IntelligentVehicleProjects\K60_SmartCar_20160411\Debug/../06_App_Component/light/light.c:45
}
    1ae2:	3708      	adds	r7, #8
    1ae4:	46bd      	mov	sp, r7
    1ae6:	bd80      	pop	{r7, pc}

00001ae8 <GyroAcce_init>:
GyroAcce_init():
D:\IntelligentVehicleProjects\K60_SmartCar_20160411\Debug/../06_App_Component/GyroAcce/GyroAcce.c:16
//
//AD
//MCU
//==============================================================
void GyroAcce_init(void)
{
    1ae8:	b580      	push	{r7, lr}
    1aea:	af00      	add	r7, sp, #0
D:\IntelligentVehicleProjects\K60_SmartCar_20160411\Debug/../06_App_Component/GyroAcce/GyroAcce.c:17
	adc_init(1) ; //PTB4PTB6
    1aec:	2001      	movs	r0, #1
    1aee:	f000 ff09 	bl	2904 <adc_init>
D:\IntelligentVehicleProjects\K60_SmartCar_20160411\Debug/../06_App_Component/GyroAcce/GyroAcce.c:18
}
    1af2:	bd80      	pop	{r7, pc}

00001af4 <GyroAcce_getAD>:
GyroAcce_getAD():
D:\IntelligentVehicleProjects\K60_SmartCar_20160411\Debug/../06_App_Component/GyroAcce/GyroAcce.c:28
//ADValueAD
//ADAD
//MCU
//==============================================================
uint8_t GyroAcce_getAD(uint16_t *ADValue, uint8_t Count)
{
    1af4:	b590      	push	{r4, r7, lr}
    1af6:	b083      	sub	sp, #12
    1af8:	af00      	add	r7, sp, #0
    1afa:	6078      	str	r0, [r7, #4]
    1afc:	460b      	mov	r3, r1
    1afe:	70fb      	strb	r3, [r7, #3]
D:\IntelligentVehicleProjects\K60_SmartCar_20160411\Debug/../06_App_Component/GyroAcce/GyroAcce.c:29
	 *ADValue       = adc_ave(1,10,12,16) ;    //PTB4		//Z
    1b00:	2001      	movs	r0, #1
    1b02:	210a      	movs	r1, #10
    1b04:	220c      	movs	r2, #12
    1b06:	2310      	movs	r3, #16
    1b08:	f000 ffd2 	bl	2ab0 <adc_ave>
    1b0c:	4603      	mov	r3, r0
    1b0e:	461a      	mov	r2, r3
    1b10:	687b      	ldr	r3, [r7, #4]
    1b12:	801a      	strh	r2, [r3, #0]
D:\IntelligentVehicleProjects\K60_SmartCar_20160411\Debug/../06_App_Component/GyroAcce/GyroAcce.c:30
     *(ADValue + 1) = adc_ave(1,12,12,16) ;    //PTB6		//X
    1b14:	687b      	ldr	r3, [r7, #4]
    1b16:	1c9c      	adds	r4, r3, #2
    1b18:	2001      	movs	r0, #1
    1b1a:	210c      	movs	r1, #12
    1b1c:	220c      	movs	r2, #12
    1b1e:	2310      	movs	r3, #16
    1b20:	f000 ffc6 	bl	2ab0 <adc_ave>
    1b24:	4603      	mov	r3, r0
    1b26:	8023      	strh	r3, [r4, #0]
D:\IntelligentVehicleProjects\K60_SmartCar_20160411\Debug/../06_App_Component/GyroAcce/GyroAcce.c:32

     return (Count + 16);
    1b28:	78fb      	ldrb	r3, [r7, #3]
    1b2a:	3310      	adds	r3, #16
    1b2c:	b2db      	uxtb	r3, r3
D:\IntelligentVehicleProjects\K60_SmartCar_20160411\Debug/../06_App_Component/GyroAcce/GyroAcce.c:33
}
    1b2e:	4618      	mov	r0, r3
    1b30:	370c      	adds	r7, #12
    1b32:	46bd      	mov	sp, r7
    1b34:	bd90      	pop	{r4, r7, pc}
    1b36:	bf00      	nop

00001b38 <GyroAccePHYToAngle>:
GyroAccePHYToAngle():
D:\IntelligentVehicleProjects\K60_SmartCar_20160411\Debug/../06_App_Component/GyroAcce/GyroAcce.c:45
//          float *   car_Angle
//
//==============================================================
void GyroAccePHYToAngle(float *GyroAngle,float *AcceValue,
		float *car_Angle)
{
    1b38:	b5b0      	push	{r4, r5, r7, lr}
    1b3a:	b086      	sub	sp, #24
    1b3c:	af00      	add	r7, sp, #0
    1b3e:	60f8      	str	r0, [r7, #12]
    1b40:	60b9      	str	r1, [r7, #8]
    1b42:	607a      	str	r2, [r7, #4]
D:\IntelligentVehicleProjects\K60_SmartCar_20160411\Debug/../06_App_Component/GyroAcce/GyroAcce.c:46
	float dt=0.005;	//0.005
    1b44:	4b96      	ldr	r3, [pc, #600]	; (1da0 <GyroAccePHYToAngle+0x268>)
    1b46:	617b      	str	r3, [r7, #20]
D:\IntelligentVehicleProjects\K60_SmartCar_20160411\Debug/../06_App_Component/GyroAcce/GyroAcce.c:52
	static float P[2][2] = {{ 1, 0 },{ 0, 1 }};
	static float Pdot[4] ={0,0,0,0};
	static const char C_0 = 1;
	static float q_bias,angle_err,PCt_0,PCt_1,EE,K_0,K_1,t_0,t_1;

	car_Angle[0]+=(*GyroAngle-q_bias) * dt;//
    1b48:	687b      	ldr	r3, [r7, #4]
    1b4a:	681c      	ldr	r4, [r3, #0]
    1b4c:	68fb      	ldr	r3, [r7, #12]
    1b4e:	681a      	ldr	r2, [r3, #0]
    1b50:	4b94      	ldr	r3, [pc, #592]	; (1da4 <GyroAccePHYToAngle+0x26c>)
    1b52:	681b      	ldr	r3, [r3, #0]
    1b54:	4610      	mov	r0, r2
    1b56:	4619      	mov	r1, r3
    1b58:	f7ff fa98 	bl	108c <__aeabi_fsub>
    1b5c:	4603      	mov	r3, r0
    1b5e:	4618      	mov	r0, r3
    1b60:	6979      	ldr	r1, [r7, #20]
    1b62:	f7ff fb9d 	bl	12a0 <__aeabi_fmul>
    1b66:	4603      	mov	r3, r0
    1b68:	4620      	mov	r0, r4
    1b6a:	4619      	mov	r1, r3
    1b6c:	f7ff fa90 	bl	1090 <__addsf3>
    1b70:	4603      	mov	r3, r0
    1b72:	461a      	mov	r2, r3
    1b74:	687b      	ldr	r3, [r7, #4]
    1b76:	601a      	str	r2, [r3, #0]
D:\IntelligentVehicleProjects\K60_SmartCar_20160411\Debug/../06_App_Component/GyroAcce/GyroAcce.c:55

	// Pk-' 
	Pdot[0]=Q_angle - P[0][1] - P[1][0];
    1b78:	4b8b      	ldr	r3, [pc, #556]	; (1da8 <GyroAccePHYToAngle+0x270>)
    1b7a:	685b      	ldr	r3, [r3, #4]
    1b7c:	4618      	mov	r0, r3
    1b7e:	f7fe ffa3 	bl	ac8 <__aeabi_f2d>
    1b82:	4602      	mov	r2, r0
    1b84:	460b      	mov	r3, r1
    1b86:	a182      	add	r1, pc, #520	; (adr r1, 1d90 <GyroAccePHYToAngle+0x258>)
    1b88:	e9d1 0100 	ldrd	r0, r1, [r1]
    1b8c:	f7fe fe3c 	bl	808 <__aeabi_dsub>
    1b90:	4602      	mov	r2, r0
    1b92:	460b      	mov	r3, r1
    1b94:	4614      	mov	r4, r2
    1b96:	461d      	mov	r5, r3
    1b98:	4b83      	ldr	r3, [pc, #524]	; (1da8 <GyroAccePHYToAngle+0x270>)
    1b9a:	689b      	ldr	r3, [r3, #8]
    1b9c:	4618      	mov	r0, r3
    1b9e:	f7fe ff93 	bl	ac8 <__aeabi_f2d>
    1ba2:	4602      	mov	r2, r0
    1ba4:	460b      	mov	r3, r1
    1ba6:	4620      	mov	r0, r4
    1ba8:	4629      	mov	r1, r5
    1baa:	f7fe fe2d 	bl	808 <__aeabi_dsub>
    1bae:	4602      	mov	r2, r0
    1bb0:	460b      	mov	r3, r1
    1bb2:	4610      	mov	r0, r2
    1bb4:	4619      	mov	r1, r3
    1bb6:	f7ff fa15 	bl	fe4 <__aeabi_d2f>
    1bba:	4602      	mov	r2, r0
    1bbc:	4b7b      	ldr	r3, [pc, #492]	; (1dac <GyroAccePHYToAngle+0x274>)
    1bbe:	601a      	str	r2, [r3, #0]
D:\IntelligentVehicleProjects\K60_SmartCar_20160411\Debug/../06_App_Component/GyroAcce/GyroAcce.c:56
	Pdot[1]=- P[1][1];
    1bc0:	4b79      	ldr	r3, [pc, #484]	; (1da8 <GyroAccePHYToAngle+0x270>)
    1bc2:	68db      	ldr	r3, [r3, #12]
    1bc4:	f083 4200 	eor.w	r2, r3, #2147483648	; 0x80000000
    1bc8:	4b78      	ldr	r3, [pc, #480]	; (1dac <GyroAccePHYToAngle+0x274>)
    1bca:	605a      	str	r2, [r3, #4]
D:\IntelligentVehicleProjects\K60_SmartCar_20160411\Debug/../06_App_Component/GyroAcce/GyroAcce.c:57
	Pdot[2]=- P[1][1];
    1bcc:	4b76      	ldr	r3, [pc, #472]	; (1da8 <GyroAccePHYToAngle+0x270>)
    1bce:	68db      	ldr	r3, [r3, #12]
    1bd0:	f083 4200 	eor.w	r2, r3, #2147483648	; 0x80000000
    1bd4:	4b75      	ldr	r3, [pc, #468]	; (1dac <GyroAccePHYToAngle+0x274>)
    1bd6:	609a      	str	r2, [r3, #8]
D:\IntelligentVehicleProjects\K60_SmartCar_20160411\Debug/../06_App_Component/GyroAcce/GyroAcce.c:58
	Pdot[3]=Q_gyro;
    1bd8:	4b74      	ldr	r3, [pc, #464]	; (1dac <GyroAccePHYToAngle+0x274>)
    1bda:	4a75      	ldr	r2, [pc, #468]	; (1db0 <GyroAccePHYToAngle+0x278>)
    1bdc:	60da      	str	r2, [r3, #12]
D:\IntelligentVehicleProjects\K60_SmartCar_20160411\Debug/../06_App_Component/GyroAcce/GyroAcce.c:61

	// Pk-  = 
	P[0][0] += Pdot[0] * dt;
    1bde:	4b72      	ldr	r3, [pc, #456]	; (1da8 <GyroAccePHYToAngle+0x270>)
    1be0:	681c      	ldr	r4, [r3, #0]
    1be2:	4b72      	ldr	r3, [pc, #456]	; (1dac <GyroAccePHYToAngle+0x274>)
    1be4:	681b      	ldr	r3, [r3, #0]
    1be6:	4618      	mov	r0, r3
    1be8:	6979      	ldr	r1, [r7, #20]
    1bea:	f7ff fb59 	bl	12a0 <__aeabi_fmul>
    1bee:	4603      	mov	r3, r0
    1bf0:	4620      	mov	r0, r4
    1bf2:	4619      	mov	r1, r3
    1bf4:	f7ff fa4c 	bl	1090 <__addsf3>
    1bf8:	4603      	mov	r3, r0
    1bfa:	461a      	mov	r2, r3
    1bfc:	4b6a      	ldr	r3, [pc, #424]	; (1da8 <GyroAccePHYToAngle+0x270>)
    1bfe:	601a      	str	r2, [r3, #0]
D:\IntelligentVehicleProjects\K60_SmartCar_20160411\Debug/../06_App_Component/GyroAcce/GyroAcce.c:62
	P[0][1] += Pdot[1] * dt;
    1c00:	4b69      	ldr	r3, [pc, #420]	; (1da8 <GyroAccePHYToAngle+0x270>)
    1c02:	685c      	ldr	r4, [r3, #4]
    1c04:	4b69      	ldr	r3, [pc, #420]	; (1dac <GyroAccePHYToAngle+0x274>)
    1c06:	685b      	ldr	r3, [r3, #4]
    1c08:	4618      	mov	r0, r3
    1c0a:	6979      	ldr	r1, [r7, #20]
    1c0c:	f7ff fb48 	bl	12a0 <__aeabi_fmul>
    1c10:	4603      	mov	r3, r0
    1c12:	4620      	mov	r0, r4
    1c14:	4619      	mov	r1, r3
    1c16:	f7ff fa3b 	bl	1090 <__addsf3>
    1c1a:	4603      	mov	r3, r0
    1c1c:	461a      	mov	r2, r3
    1c1e:	4b62      	ldr	r3, [pc, #392]	; (1da8 <GyroAccePHYToAngle+0x270>)
    1c20:	605a      	str	r2, [r3, #4]
D:\IntelligentVehicleProjects\K60_SmartCar_20160411\Debug/../06_App_Component/GyroAcce/GyroAcce.c:63
	P[1][0] += Pdot[2] * dt;
    1c22:	4b61      	ldr	r3, [pc, #388]	; (1da8 <GyroAccePHYToAngle+0x270>)
    1c24:	689c      	ldr	r4, [r3, #8]
    1c26:	4b61      	ldr	r3, [pc, #388]	; (1dac <GyroAccePHYToAngle+0x274>)
    1c28:	689b      	ldr	r3, [r3, #8]
    1c2a:	4618      	mov	r0, r3
    1c2c:	6979      	ldr	r1, [r7, #20]
    1c2e:	f7ff fb37 	bl	12a0 <__aeabi_fmul>
    1c32:	4603      	mov	r3, r0
    1c34:	4620      	mov	r0, r4
    1c36:	4619      	mov	r1, r3
    1c38:	f7ff fa2a 	bl	1090 <__addsf3>
    1c3c:	4603      	mov	r3, r0
    1c3e:	461a      	mov	r2, r3
    1c40:	4b59      	ldr	r3, [pc, #356]	; (1da8 <GyroAccePHYToAngle+0x270>)
    1c42:	609a      	str	r2, [r3, #8]
D:\IntelligentVehicleProjects\K60_SmartCar_20160411\Debug/../06_App_Component/GyroAcce/GyroAcce.c:64
	P[1][1] += Pdot[3] * dt;
    1c44:	4b58      	ldr	r3, [pc, #352]	; (1da8 <GyroAccePHYToAngle+0x270>)
    1c46:	68dc      	ldr	r4, [r3, #12]
    1c48:	4b58      	ldr	r3, [pc, #352]	; (1dac <GyroAccePHYToAngle+0x274>)
    1c4a:	68db      	ldr	r3, [r3, #12]
    1c4c:	4618      	mov	r0, r3
    1c4e:	6979      	ldr	r1, [r7, #20]
    1c50:	f7ff fb26 	bl	12a0 <__aeabi_fmul>
    1c54:	4603      	mov	r3, r0
    1c56:	4620      	mov	r0, r4
    1c58:	4619      	mov	r1, r3
    1c5a:	f7ff fa19 	bl	1090 <__addsf3>
    1c5e:	4603      	mov	r3, r0
    1c60:	461a      	mov	r2, r3
    1c62:	4b51      	ldr	r3, [pc, #324]	; (1da8 <GyroAccePHYToAngle+0x270>)
    1c64:	60da      	str	r2, [r3, #12]
D:\IntelligentVehicleProjects\K60_SmartCar_20160411\Debug/../06_App_Component/GyroAcce/GyroAcce.c:66

	angle_err = asin(*AcceValue) * 180 / PI - car_Angle[0];//zk-
    1c66:	68bb      	ldr	r3, [r7, #8]
    1c68:	681b      	ldr	r3, [r3, #0]
    1c6a:	4618      	mov	r0, r3
    1c6c:	f7fe ff2c 	bl	ac8 <__aeabi_f2d>
    1c70:	4602      	mov	r2, r0
    1c72:	460b      	mov	r3, r1
    1c74:	4610      	mov	r0, r2
    1c76:	4619      	mov	r1, r3
    1c78:	f001 fade 	bl	3238 <asin>
    1c7c:	4602      	mov	r2, r0
    1c7e:	460b      	mov	r3, r1
    1c80:	4610      	mov	r0, r2
    1c82:	4619      	mov	r1, r3
    1c84:	f04f 0200 	mov.w	r2, #0
    1c88:	4b4a      	ldr	r3, [pc, #296]	; (1db4 <GyroAccePHYToAngle+0x27c>)
    1c8a:	f7fe ff71 	bl	b70 <__aeabi_dmul>
    1c8e:	4602      	mov	r2, r0
    1c90:	460b      	mov	r3, r1
    1c92:	4614      	mov	r4, r2
    1c94:	461d      	mov	r5, r3
    1c96:	4b48      	ldr	r3, [pc, #288]	; (1db8 <GyroAccePHYToAngle+0x280>)
    1c98:	681b      	ldr	r3, [r3, #0]
    1c9a:	4618      	mov	r0, r3
    1c9c:	f7fe ff14 	bl	ac8 <__aeabi_f2d>
    1ca0:	4602      	mov	r2, r0
    1ca2:	460b      	mov	r3, r1
    1ca4:	4620      	mov	r0, r4
    1ca6:	4629      	mov	r1, r5
    1ca8:	f7ff f88c 	bl	dc4 <__aeabi_ddiv>
    1cac:	4602      	mov	r2, r0
    1cae:	460b      	mov	r3, r1
    1cb0:	4614      	mov	r4, r2
    1cb2:	461d      	mov	r5, r3
    1cb4:	687b      	ldr	r3, [r7, #4]
    1cb6:	681b      	ldr	r3, [r3, #0]
    1cb8:	4618      	mov	r0, r3
    1cba:	f7fe ff05 	bl	ac8 <__aeabi_f2d>
    1cbe:	4602      	mov	r2, r0
    1cc0:	460b      	mov	r3, r1
    1cc2:	4620      	mov	r0, r4
    1cc4:	4629      	mov	r1, r5
    1cc6:	f7fe fd9f 	bl	808 <__aeabi_dsub>
    1cca:	4602      	mov	r2, r0
    1ccc:	460b      	mov	r3, r1
    1cce:	4610      	mov	r0, r2
    1cd0:	4619      	mov	r1, r3
    1cd2:	f7ff f987 	bl	fe4 <__aeabi_d2f>
    1cd6:	4602      	mov	r2, r0
    1cd8:	4b38      	ldr	r3, [pc, #224]	; (1dbc <GyroAccePHYToAngle+0x284>)
    1cda:	601a      	str	r2, [r3, #0]
D:\IntelligentVehicleProjects\K60_SmartCar_20160411\Debug/../06_App_Component/GyroAcce/GyroAcce.c:68

	PCt_0 = C_0 * P[0][0];
    1cdc:	2301      	movs	r3, #1
    1cde:	b25b      	sxtb	r3, r3
    1ce0:	4618      	mov	r0, r3
    1ce2:	f7ff fa89 	bl	11f8 <__aeabi_i2f>
    1ce6:	4602      	mov	r2, r0
    1ce8:	4b2f      	ldr	r3, [pc, #188]	; (1da8 <GyroAccePHYToAngle+0x270>)
    1cea:	681b      	ldr	r3, [r3, #0]
    1cec:	4610      	mov	r0, r2
    1cee:	4619      	mov	r1, r3
    1cf0:	f7ff fad6 	bl	12a0 <__aeabi_fmul>
    1cf4:	4603      	mov	r3, r0
    1cf6:	461a      	mov	r2, r3
    1cf8:	4b31      	ldr	r3, [pc, #196]	; (1dc0 <GyroAccePHYToAngle+0x288>)
    1cfa:	601a      	str	r2, [r3, #0]
D:\IntelligentVehicleProjects\K60_SmartCar_20160411\Debug/../06_App_Component/GyroAcce/GyroAcce.c:69
	PCt_1 = C_0 * P[1][0];
    1cfc:	2301      	movs	r3, #1
    1cfe:	b25b      	sxtb	r3, r3
    1d00:	4618      	mov	r0, r3
    1d02:	f7ff fa79 	bl	11f8 <__aeabi_i2f>
    1d06:	4602      	mov	r2, r0
    1d08:	4b27      	ldr	r3, [pc, #156]	; (1da8 <GyroAccePHYToAngle+0x270>)
    1d0a:	689b      	ldr	r3, [r3, #8]
    1d0c:	4610      	mov	r0, r2
    1d0e:	4619      	mov	r1, r3
    1d10:	f7ff fac6 	bl	12a0 <__aeabi_fmul>
    1d14:	4603      	mov	r3, r0
    1d16:	461a      	mov	r2, r3
    1d18:	4b2a      	ldr	r3, [pc, #168]	; (1dc4 <GyroAccePHYToAngle+0x28c>)
    1d1a:	601a      	str	r2, [r3, #0]
D:\IntelligentVehicleProjects\K60_SmartCar_20160411\Debug/../06_App_Component/GyroAcce/GyroAcce.c:71

	EE = R_angle + C_0 * PCt_0;
    1d1c:	2301      	movs	r3, #1
    1d1e:	b25b      	sxtb	r3, r3
    1d20:	4618      	mov	r0, r3
    1d22:	f7ff fa69 	bl	11f8 <__aeabi_i2f>
    1d26:	4602      	mov	r2, r0
    1d28:	4b25      	ldr	r3, [pc, #148]	; (1dc0 <GyroAccePHYToAngle+0x288>)
    1d2a:	681b      	ldr	r3, [r3, #0]
    1d2c:	4610      	mov	r0, r2
    1d2e:	4619      	mov	r1, r3
    1d30:	f7ff fab6 	bl	12a0 <__aeabi_fmul>
    1d34:	4603      	mov	r3, r0
    1d36:	4618      	mov	r0, r3
    1d38:	f7fe fec6 	bl	ac8 <__aeabi_f2d>
    1d3c:	4602      	mov	r2, r0
    1d3e:	460b      	mov	r3, r1
    1d40:	4610      	mov	r0, r2
    1d42:	4619      	mov	r1, r3
    1d44:	a314      	add	r3, pc, #80	; (adr r3, 1d98 <GyroAccePHYToAngle+0x260>)
    1d46:	e9d3 2300 	ldrd	r2, r3, [r3]
    1d4a:	f7fe fd5f 	bl	80c <__adddf3>
    1d4e:	4602      	mov	r2, r0
    1d50:	460b      	mov	r3, r1
    1d52:	4610      	mov	r0, r2
    1d54:	4619      	mov	r1, r3
    1d56:	f7ff f945 	bl	fe4 <__aeabi_d2f>
    1d5a:	4602      	mov	r2, r0
    1d5c:	4b1a      	ldr	r3, [pc, #104]	; (1dc8 <GyroAccePHYToAngle+0x290>)
    1d5e:	601a      	str	r2, [r3, #0]
D:\IntelligentVehicleProjects\K60_SmartCar_20160411\Debug/../06_App_Component/GyroAcce/GyroAcce.c:73

	K_0 = PCt_0 / EE;
    1d60:	4b17      	ldr	r3, [pc, #92]	; (1dc0 <GyroAccePHYToAngle+0x288>)
    1d62:	681a      	ldr	r2, [r3, #0]
    1d64:	4b18      	ldr	r3, [pc, #96]	; (1dc8 <GyroAccePHYToAngle+0x290>)
    1d66:	681b      	ldr	r3, [r3, #0]
    1d68:	4610      	mov	r0, r2
    1d6a:	4619      	mov	r1, r3
    1d6c:	f7ff fb4c 	bl	1408 <__aeabi_fdiv>
    1d70:	4603      	mov	r3, r0
    1d72:	461a      	mov	r2, r3
    1d74:	4b15      	ldr	r3, [pc, #84]	; (1dcc <GyroAccePHYToAngle+0x294>)
    1d76:	601a      	str	r2, [r3, #0]
D:\IntelligentVehicleProjects\K60_SmartCar_20160411\Debug/../06_App_Component/GyroAcce/GyroAcce.c:74
	K_1 = PCt_1 / EE;
    1d78:	4b12      	ldr	r3, [pc, #72]	; (1dc4 <GyroAccePHYToAngle+0x28c>)
    1d7a:	681a      	ldr	r2, [r3, #0]
    1d7c:	4b12      	ldr	r3, [pc, #72]	; (1dc8 <GyroAccePHYToAngle+0x290>)
    1d7e:	681b      	ldr	r3, [r3, #0]
    1d80:	4610      	mov	r0, r2
    1d82:	4619      	mov	r1, r3
    1d84:	f7ff fb40 	bl	1408 <__aeabi_fdiv>
    1d88:	e022      	b.n	1dd0 <GyroAccePHYToAngle+0x298>
    1d8a:	bf00      	nop
    1d8c:	f3af 8000 	nop.w
    1d90:	d9d7bdbb 	.word	0xd9d7bdbb
    1d94:	3ddb7cdf 	.word	0x3ddb7cdf
    1d98:	eb1c432d 	.word	0xeb1c432d
    1d9c:	3f1a36e2 	.word	0x3f1a36e2
    1da0:	3ba3d70a 	.word	0x3ba3d70a
    1da4:	1fff009c 	.word	0x1fff009c
    1da8:	1fff0008 	.word	0x1fff0008
    1dac:	1fff00a0 	.word	0x1fff00a0
    1db0:	358637bd 	.word	0x358637bd
    1db4:	40668000 	.word	0x40668000
    1db8:	1fff0004 	.word	0x1fff0004
    1dbc:	1fff00b0 	.word	0x1fff00b0
    1dc0:	1fff00b4 	.word	0x1fff00b4
    1dc4:	1fff00b8 	.word	0x1fff00b8
    1dc8:	1fff00bc 	.word	0x1fff00bc
    1dcc:	1fff00c0 	.word	0x1fff00c0
    1dd0:	4603      	mov	r3, r0
    1dd2:	461a      	mov	r2, r3
    1dd4:	4b4b      	ldr	r3, [pc, #300]	; (1f04 <GyroAccePHYToAngle+0x3cc>)
    1dd6:	601a      	str	r2, [r3, #0]
D:\IntelligentVehicleProjects\K60_SmartCar_20160411\Debug/../06_App_Component/GyroAcce/GyroAcce.c:76

	t_0 = PCt_0;
    1dd8:	4b4b      	ldr	r3, [pc, #300]	; (1f08 <GyroAccePHYToAngle+0x3d0>)
    1dda:	681a      	ldr	r2, [r3, #0]
    1ddc:	4b4b      	ldr	r3, [pc, #300]	; (1f0c <GyroAccePHYToAngle+0x3d4>)
    1dde:	601a      	str	r2, [r3, #0]
D:\IntelligentVehicleProjects\K60_SmartCar_20160411\Debug/../06_App_Component/GyroAcce/GyroAcce.c:77
	t_1 = C_0 * P[0][1];
    1de0:	2301      	movs	r3, #1
    1de2:	b25b      	sxtb	r3, r3
    1de4:	4618      	mov	r0, r3
    1de6:	f7ff fa07 	bl	11f8 <__aeabi_i2f>
    1dea:	4602      	mov	r2, r0
    1dec:	4b48      	ldr	r3, [pc, #288]	; (1f10 <GyroAccePHYToAngle+0x3d8>)
    1dee:	685b      	ldr	r3, [r3, #4]
    1df0:	4610      	mov	r0, r2
    1df2:	4619      	mov	r1, r3
    1df4:	f7ff fa54 	bl	12a0 <__aeabi_fmul>
    1df8:	4603      	mov	r3, r0
    1dfa:	461a      	mov	r2, r3
    1dfc:	4b45      	ldr	r3, [pc, #276]	; (1f14 <GyroAccePHYToAngle+0x3dc>)
    1dfe:	601a      	str	r2, [r3, #0]
D:\IntelligentVehicleProjects\K60_SmartCar_20160411\Debug/../06_App_Component/GyroAcce/GyroAcce.c:79

	P[0][0] -= K_0 * t_0;//
    1e00:	4b43      	ldr	r3, [pc, #268]	; (1f10 <GyroAccePHYToAngle+0x3d8>)
    1e02:	681c      	ldr	r4, [r3, #0]
    1e04:	4b44      	ldr	r3, [pc, #272]	; (1f18 <GyroAccePHYToAngle+0x3e0>)
    1e06:	681a      	ldr	r2, [r3, #0]
    1e08:	4b40      	ldr	r3, [pc, #256]	; (1f0c <GyroAccePHYToAngle+0x3d4>)
    1e0a:	681b      	ldr	r3, [r3, #0]
    1e0c:	4610      	mov	r0, r2
    1e0e:	4619      	mov	r1, r3
    1e10:	f7ff fa46 	bl	12a0 <__aeabi_fmul>
    1e14:	4603      	mov	r3, r0
    1e16:	4620      	mov	r0, r4
    1e18:	4619      	mov	r1, r3
    1e1a:	f7ff f937 	bl	108c <__aeabi_fsub>
    1e1e:	4603      	mov	r3, r0
    1e20:	461a      	mov	r2, r3
    1e22:	4b3b      	ldr	r3, [pc, #236]	; (1f10 <GyroAccePHYToAngle+0x3d8>)
    1e24:	601a      	str	r2, [r3, #0]
D:\IntelligentVehicleProjects\K60_SmartCar_20160411\Debug/../06_App_Component/GyroAcce/GyroAcce.c:80
	P[0][1] -= K_0 * t_1;
    1e26:	4b3a      	ldr	r3, [pc, #232]	; (1f10 <GyroAccePHYToAngle+0x3d8>)
    1e28:	685c      	ldr	r4, [r3, #4]
    1e2a:	4b3b      	ldr	r3, [pc, #236]	; (1f18 <GyroAccePHYToAngle+0x3e0>)
    1e2c:	681a      	ldr	r2, [r3, #0]
    1e2e:	4b39      	ldr	r3, [pc, #228]	; (1f14 <GyroAccePHYToAngle+0x3dc>)
    1e30:	681b      	ldr	r3, [r3, #0]
    1e32:	4610      	mov	r0, r2
    1e34:	4619      	mov	r1, r3
    1e36:	f7ff fa33 	bl	12a0 <__aeabi_fmul>
    1e3a:	4603      	mov	r3, r0
    1e3c:	4620      	mov	r0, r4
    1e3e:	4619      	mov	r1, r3
    1e40:	f7ff f924 	bl	108c <__aeabi_fsub>
    1e44:	4603      	mov	r3, r0
    1e46:	461a      	mov	r2, r3
    1e48:	4b31      	ldr	r3, [pc, #196]	; (1f10 <GyroAccePHYToAngle+0x3d8>)
    1e4a:	605a      	str	r2, [r3, #4]
D:\IntelligentVehicleProjects\K60_SmartCar_20160411\Debug/../06_App_Component/GyroAcce/GyroAcce.c:81
	P[1][0] -= K_1 * t_0;
    1e4c:	4b30      	ldr	r3, [pc, #192]	; (1f10 <GyroAccePHYToAngle+0x3d8>)
    1e4e:	689c      	ldr	r4, [r3, #8]
    1e50:	4b2c      	ldr	r3, [pc, #176]	; (1f04 <GyroAccePHYToAngle+0x3cc>)
    1e52:	681a      	ldr	r2, [r3, #0]
    1e54:	4b2d      	ldr	r3, [pc, #180]	; (1f0c <GyroAccePHYToAngle+0x3d4>)
    1e56:	681b      	ldr	r3, [r3, #0]
    1e58:	4610      	mov	r0, r2
    1e5a:	4619      	mov	r1, r3
    1e5c:	f7ff fa20 	bl	12a0 <__aeabi_fmul>
    1e60:	4603      	mov	r3, r0
    1e62:	4620      	mov	r0, r4
    1e64:	4619      	mov	r1, r3
    1e66:	f7ff f911 	bl	108c <__aeabi_fsub>
    1e6a:	4603      	mov	r3, r0
    1e6c:	461a      	mov	r2, r3
    1e6e:	4b28      	ldr	r3, [pc, #160]	; (1f10 <GyroAccePHYToAngle+0x3d8>)
    1e70:	609a      	str	r2, [r3, #8]
D:\IntelligentVehicleProjects\K60_SmartCar_20160411\Debug/../06_App_Component/GyroAcce/GyroAcce.c:82
	P[1][1] -= K_1 * t_1;
    1e72:	4b27      	ldr	r3, [pc, #156]	; (1f10 <GyroAccePHYToAngle+0x3d8>)
    1e74:	68dc      	ldr	r4, [r3, #12]
    1e76:	4b23      	ldr	r3, [pc, #140]	; (1f04 <GyroAccePHYToAngle+0x3cc>)
    1e78:	681a      	ldr	r2, [r3, #0]
    1e7a:	4b26      	ldr	r3, [pc, #152]	; (1f14 <GyroAccePHYToAngle+0x3dc>)
    1e7c:	681b      	ldr	r3, [r3, #0]
    1e7e:	4610      	mov	r0, r2
    1e80:	4619      	mov	r1, r3
    1e82:	f7ff fa0d 	bl	12a0 <__aeabi_fmul>
    1e86:	4603      	mov	r3, r0
    1e88:	4620      	mov	r0, r4
    1e8a:	4619      	mov	r1, r3
    1e8c:	f7ff f8fe 	bl	108c <__aeabi_fsub>
    1e90:	4603      	mov	r3, r0
    1e92:	461a      	mov	r2, r3
    1e94:	4b1e      	ldr	r3, [pc, #120]	; (1f10 <GyroAccePHYToAngle+0x3d8>)
    1e96:	60da      	str	r2, [r3, #12]
D:\IntelligentVehicleProjects\K60_SmartCar_20160411\Debug/../06_App_Component/GyroAcce/GyroAcce.c:85

	//
	car_Angle[0] += K_0 * angle_err;
    1e98:	687b      	ldr	r3, [r7, #4]
    1e9a:	681c      	ldr	r4, [r3, #0]
    1e9c:	4b1e      	ldr	r3, [pc, #120]	; (1f18 <GyroAccePHYToAngle+0x3e0>)
    1e9e:	681a      	ldr	r2, [r3, #0]
    1ea0:	4b1e      	ldr	r3, [pc, #120]	; (1f1c <GyroAccePHYToAngle+0x3e4>)
    1ea2:	681b      	ldr	r3, [r3, #0]
    1ea4:	4610      	mov	r0, r2
    1ea6:	4619      	mov	r1, r3
    1ea8:	f7ff f9fa 	bl	12a0 <__aeabi_fmul>
    1eac:	4603      	mov	r3, r0
    1eae:	4620      	mov	r0, r4
    1eb0:	4619      	mov	r1, r3
    1eb2:	f7ff f8ed 	bl	1090 <__addsf3>
    1eb6:	4603      	mov	r3, r0
    1eb8:	461a      	mov	r2, r3
    1eba:	687b      	ldr	r3, [r7, #4]
    1ebc:	601a      	str	r2, [r3, #0]
D:\IntelligentVehicleProjects\K60_SmartCar_20160411\Debug/../06_App_Component/GyroAcce/GyroAcce.c:86
	q_bias	+= K_1 * angle_err;
    1ebe:	4b11      	ldr	r3, [pc, #68]	; (1f04 <GyroAccePHYToAngle+0x3cc>)
    1ec0:	681a      	ldr	r2, [r3, #0]
    1ec2:	4b16      	ldr	r3, [pc, #88]	; (1f1c <GyroAccePHYToAngle+0x3e4>)
    1ec4:	681b      	ldr	r3, [r3, #0]
    1ec6:	4610      	mov	r0, r2
    1ec8:	4619      	mov	r1, r3
    1eca:	f7ff f9e9 	bl	12a0 <__aeabi_fmul>
    1ece:	4603      	mov	r3, r0
    1ed0:	461a      	mov	r2, r3
    1ed2:	4b13      	ldr	r3, [pc, #76]	; (1f20 <GyroAccePHYToAngle+0x3e8>)
    1ed4:	681b      	ldr	r3, [r3, #0]
    1ed6:	4610      	mov	r0, r2
    1ed8:	4619      	mov	r1, r3
    1eda:	f7ff f8d9 	bl	1090 <__addsf3>
    1ede:	4603      	mov	r3, r0
    1ee0:	461a      	mov	r2, r3
    1ee2:	4b0f      	ldr	r3, [pc, #60]	; (1f20 <GyroAccePHYToAngle+0x3e8>)
    1ee4:	601a      	str	r2, [r3, #0]
D:\IntelligentVehicleProjects\K60_SmartCar_20160411\Debug/../06_App_Component/GyroAcce/GyroAcce.c:89

	// = 
	car_Angle[1]= *GyroAngle-q_bias;
    1ee6:	687b      	ldr	r3, [r7, #4]
    1ee8:	1d1c      	adds	r4, r3, #4
    1eea:	68fb      	ldr	r3, [r7, #12]
    1eec:	681a      	ldr	r2, [r3, #0]
    1eee:	4b0c      	ldr	r3, [pc, #48]	; (1f20 <GyroAccePHYToAngle+0x3e8>)
    1ef0:	681b      	ldr	r3, [r3, #0]
    1ef2:	4610      	mov	r0, r2
    1ef4:	4619      	mov	r1, r3
    1ef6:	f7ff f8c9 	bl	108c <__aeabi_fsub>
    1efa:	4603      	mov	r3, r0
    1efc:	6023      	str	r3, [r4, #0]
D:\IntelligentVehicleProjects\K60_SmartCar_20160411\Debug/../06_App_Component/GyroAcce/GyroAcce.c:90
}
    1efe:	3718      	adds	r7, #24
    1f00:	46bd      	mov	sp, r7
    1f02:	bdb0      	pop	{r4, r5, r7, pc}
    1f04:	1fff00c4 	.word	0x1fff00c4
    1f08:	1fff00b4 	.word	0x1fff00b4
    1f0c:	1fff00c8 	.word	0x1fff00c8
    1f10:	1fff0008 	.word	0x1fff0008
    1f14:	1fff00cc 	.word	0x1fff00cc
    1f18:	1fff00c0 	.word	0x1fff00c0
    1f1c:	1fff00b0 	.word	0x1fff00b0
    1f20:	1fff009c 	.word	0x1fff009c
$t():
    1f24:	f3af 8000 	nop.w

00001f28 <ADToGyroAccePHY>:
ADToGyroAccePHY():
D:\IntelligentVehicleProjects\K60_SmartCar_20160411\Debug/../06_App_Component/GyroAcce/GyroAcce.c:102
//          float *   GyroAngle,/s,,
//          float *   AcceValue,g,,
//
//==============================================================
void ADToGyroAccePHY(uint16_t *ADValue,float *GyroAngle,float *AcceValue)
{
    1f28:	b5b0      	push	{r4, r5, r7, lr}
    1f2a:	b084      	sub	sp, #16
    1f2c:	af00      	add	r7, sp, #0
    1f2e:	60f8      	str	r0, [r7, #12]
    1f30:	60b9      	str	r1, [r7, #8]
    1f32:	607a      	str	r2, [r7, #4]
D:\IntelligentVehicleProjects\K60_SmartCar_20160411\Debug/../06_App_Component/GyroAcce/GyroAcce.c:104
	//
	*AcceValue = -1 * ((ADValue[0] - CAR_ACCE_SET )
    1f34:	68fb      	ldr	r3, [r7, #12]
    1f36:	881b      	ldrh	r3, [r3, #0]
    1f38:	f2a3 7337 	subw	r3, r3, #1847	; 0x737
D:\IntelligentVehicleProjects\K60_SmartCar_20160411\Debug/../06_App_Component/GyroAcce/GyroAcce.c:105
	    		* 3.3 / 4096) / 0.8;
    1f3c:	4618      	mov	r0, r3
    1f3e:	f7fe fdb1 	bl	aa4 <__aeabi_i2d>
    1f42:	4602      	mov	r2, r0
    1f44:	460b      	mov	r3, r1
    1f46:	4610      	mov	r0, r2
    1f48:	4619      	mov	r1, r3
    1f4a:	a329      	add	r3, pc, #164	; (adr r3, 1ff0 <ADToGyroAccePHY+0xc8>)
    1f4c:	e9d3 2300 	ldrd	r2, r3, [r3]
    1f50:	f7fe fe0e 	bl	b70 <__aeabi_dmul>
    1f54:	4602      	mov	r2, r0
    1f56:	460b      	mov	r3, r1
    1f58:	4610      	mov	r0, r2
    1f5a:	4619      	mov	r1, r3
    1f5c:	f04f 0200 	mov.w	r2, #0
    1f60:	4b29      	ldr	r3, [pc, #164]	; (2008 <ADToGyroAccePHY+0xe0>)
    1f62:	f7fe ff2f 	bl	dc4 <__aeabi_ddiv>
    1f66:	4602      	mov	r2, r0
    1f68:	460b      	mov	r3, r1
D:\IntelligentVehicleProjects\K60_SmartCar_20160411\Debug/../06_App_Component/GyroAcce/GyroAcce.c:104
//
//==============================================================
void ADToGyroAccePHY(uint16_t *ADValue,float *GyroAngle,float *AcceValue)
{
	//
	*AcceValue = -1 * ((ADValue[0] - CAR_ACCE_SET )
    1f6a:	4614      	mov	r4, r2
    1f6c:	f083 4500 	eor.w	r5, r3, #2147483648	; 0x80000000
D:\IntelligentVehicleProjects\K60_SmartCar_20160411\Debug/../06_App_Component/GyroAcce/GyroAcce.c:105
	    		* 3.3 / 4096) / 0.8;
    1f70:	4620      	mov	r0, r4
    1f72:	4629      	mov	r1, r5
    1f74:	a320      	add	r3, pc, #128	; (adr r3, 1ff8 <ADToGyroAccePHY+0xd0>)
    1f76:	e9d3 2300 	ldrd	r2, r3, [r3]
    1f7a:	f7fe ff23 	bl	dc4 <__aeabi_ddiv>
    1f7e:	4602      	mov	r2, r0
    1f80:	460b      	mov	r3, r1
D:\IntelligentVehicleProjects\K60_SmartCar_20160411\Debug/../06_App_Component/GyroAcce/GyroAcce.c:104
//
//==============================================================
void ADToGyroAccePHY(uint16_t *ADValue,float *GyroAngle,float *AcceValue)
{
	//
	*AcceValue = -1 * ((ADValue[0] - CAR_ACCE_SET )
    1f82:	4610      	mov	r0, r2
    1f84:	4619      	mov	r1, r3
    1f86:	f7ff f82d 	bl	fe4 <__aeabi_d2f>
    1f8a:	4602      	mov	r2, r0
    1f8c:	687b      	ldr	r3, [r7, #4]
    1f8e:	601a      	str	r2, [r3, #0]
D:\IntelligentVehicleProjects\K60_SmartCar_20160411\Debug/../06_App_Component/GyroAcce/GyroAcce.c:107
	    		* 3.3 / 4096) / 0.8;
	//
	 *GyroAngle = ((ADValue[1] - CAR_GYRO_SET)
    1f90:	68fb      	ldr	r3, [r7, #12]
    1f92:	3302      	adds	r3, #2
    1f94:	881b      	ldrh	r3, [r3, #0]
    1f96:	f2a3 63fd 	subw	r3, r3, #1789	; 0x6fd
D:\IntelligentVehicleProjects\K60_SmartCar_20160411\Debug/../06_App_Component/GyroAcce/GyroAcce.c:108
			* 3.3 / 4096) / ((0.67 / 1000) * 5.1);
    1f9a:	4618      	mov	r0, r3
    1f9c:	f7fe fd82 	bl	aa4 <__aeabi_i2d>
    1fa0:	4602      	mov	r2, r0
    1fa2:	460b      	mov	r3, r1
    1fa4:	4610      	mov	r0, r2
    1fa6:	4619      	mov	r1, r3
    1fa8:	a311      	add	r3, pc, #68	; (adr r3, 1ff0 <ADToGyroAccePHY+0xc8>)
    1faa:	e9d3 2300 	ldrd	r2, r3, [r3]
    1fae:	f7fe fddf 	bl	b70 <__aeabi_dmul>
    1fb2:	4602      	mov	r2, r0
    1fb4:	460b      	mov	r3, r1
    1fb6:	4610      	mov	r0, r2
    1fb8:	4619      	mov	r1, r3
    1fba:	f04f 0200 	mov.w	r2, #0
    1fbe:	4b12      	ldr	r3, [pc, #72]	; (2008 <ADToGyroAccePHY+0xe0>)
    1fc0:	f7fe ff00 	bl	dc4 <__aeabi_ddiv>
    1fc4:	4602      	mov	r2, r0
    1fc6:	460b      	mov	r3, r1
    1fc8:	4610      	mov	r0, r2
    1fca:	4619      	mov	r1, r3
    1fcc:	a30c      	add	r3, pc, #48	; (adr r3, 2000 <ADToGyroAccePHY+0xd8>)
    1fce:	e9d3 2300 	ldrd	r2, r3, [r3]
    1fd2:	f7fe fef7 	bl	dc4 <__aeabi_ddiv>
    1fd6:	4602      	mov	r2, r0
    1fd8:	460b      	mov	r3, r1
D:\IntelligentVehicleProjects\K60_SmartCar_20160411\Debug/../06_App_Component/GyroAcce/GyroAcce.c:107
{
	//
	*AcceValue = -1 * ((ADValue[0] - CAR_ACCE_SET )
	    		* 3.3 / 4096) / 0.8;
	//
	 *GyroAngle = ((ADValue[1] - CAR_GYRO_SET)
    1fda:	4610      	mov	r0, r2
    1fdc:	4619      	mov	r1, r3
    1fde:	f7ff f801 	bl	fe4 <__aeabi_d2f>
    1fe2:	4602      	mov	r2, r0
    1fe4:	68bb      	ldr	r3, [r7, #8]
    1fe6:	601a      	str	r2, [r3, #0]
D:\IntelligentVehicleProjects\K60_SmartCar_20160411\Debug/../06_App_Component/GyroAcce/GyroAcce.c:110
			* 3.3 / 4096) / ((0.67 / 1000) * 5.1);

}
    1fe8:	3710      	adds	r7, #16
    1fea:	46bd      	mov	sp, r7
    1fec:	bdb0      	pop	{r4, r5, r7, pc}
    1fee:	bf00      	nop
    1ff0:	66666666 	.word	0x66666666
    1ff4:	400a6666 	.word	0x400a6666
    1ff8:	9999999a 	.word	0x9999999a
    1ffc:	3fe99999 	.word	0x3fe99999
    2000:	e80389f8 	.word	0xe80389f8
    2004:	3f6bfdf7 	.word	0x3f6bfdf7
    2008:	40b00000 	.word	0x40b00000
$t():
    200c:	f3af 8000 	nop.w

00002010 <uart_init>:
uart_init():
D:\IntelligentVehicleProjects\K60_SmartCar_20160411\Debug/../05_Driver/uart/uart.c:23
//		      (48000khz)
//          baud:300600120024004800960019200115200...
//
//=========================================================================
uint8_t uart_init(uint8_t uartNo, uint32_t baud)
{
    2010:	b490      	push	{r4, r7}
    2012:	b086      	sub	sp, #24
    2014:	af00      	add	r7, sp, #0
    2016:	4603      	mov	r3, r0
    2018:	6039      	str	r1, [r7, #0]
    201a:	71fb      	strb	r3, [r7, #7]
D:\IntelligentVehicleProjects\K60_SmartCar_20160411\Debug/../05_Driver/uart/uart.c:27
    register uint16_t sbr;
    uint8_t temp;
    uint32_t sel_clk;
    UART_MemMapPtr uartch = UART_ARR[uartNo];
    201c:	79fa      	ldrb	r2, [r7, #7]
    201e:	4b68      	ldr	r3, [pc, #416]	; (21c0 <uart_init+0x1b0>)
    2020:	f853 3022 	ldr.w	r3, [r3, r2, lsl #2]
    2024:	613b      	str	r3, [r7, #16]
D:\IntelligentVehicleProjects\K60_SmartCar_20160411\Debug/../05_Driver/uart/uart.c:30

    //
    switch (uartNo)
    2026:	79fb      	ldrb	r3, [r7, #7]
    2028:	2b05      	cmp	r3, #5
    202a:	d875      	bhi.n	2118 <uart_init+0x108>
    202c:	a201      	add	r2, pc, #4	; (adr r2, 2034 <uart_init+0x24>)
    202e:	f852 f023 	ldr.w	pc, [r2, r3, lsl #2]
    2032:	bf00      	nop
    2034:	0000204d 	.word	0x0000204d
    2038:	00002077 	.word	0x00002077
    203c:	00002091 	.word	0x00002091
    2040:	000020ab 	.word	0x000020ab
    2044:	000020d5 	.word	0x000020d5
    2048:	000020ef 	.word	0x000020ef
D:\IntelligentVehicleProjects\K60_SmartCar_20160411\Debug/../05_Driver/uart/uart.c:49
       	    PORTB_PCR17 = PORT_PCR_MUX(0x2); //UART0_TXD
       	    PORTB_PCR16 = PORT_PCR_MUX(0x2); //UART0_RXD
        #endif

        #if (UART_0_GROUP==4)
       	    PORTD_PCR7 = PORT_PCR_MUX(0x2); //UART0_TXD
    204c:	4b5d      	ldr	r3, [pc, #372]	; (21c4 <uart_init+0x1b4>)
    204e:	f44f 7200 	mov.w	r2, #512	; 0x200
    2052:	61da      	str	r2, [r3, #28]
D:\IntelligentVehicleProjects\K60_SmartCar_20160411\Debug/../05_Driver/uart/uart.c:50
            PORTD_PCR6 = PORT_PCR_MUX(0x2); //UART0_RXD
    2054:	4b5b      	ldr	r3, [pc, #364]	; (21c4 <uart_init+0x1b4>)
    2056:	f44f 7200 	mov.w	r2, #512	; 0x200
    205a:	619a      	str	r2, [r3, #24]
D:\IntelligentVehicleProjects\K60_SmartCar_20160411\Debug/../05_Driver/uart/uart.c:53
        #endif

        BSET(SIM_SCGC4_UART0_SHIFT, SIM_SCGC4);//0
    205c:	495a      	ldr	r1, [pc, #360]	; (21c8 <uart_init+0x1b8>)
    205e:	4b5a      	ldr	r3, [pc, #360]	; (21c8 <uart_init+0x1b8>)
    2060:	f503 5381 	add.w	r3, r3, #4128	; 0x1020
    2064:	3314      	adds	r3, #20
    2066:	681b      	ldr	r3, [r3, #0]
    2068:	f443 6280 	orr.w	r2, r3, #1024	; 0x400
    206c:	f501 5381 	add.w	r3, r1, #4128	; 0x1020
    2070:	3314      	adds	r3, #20
    2072:	601a      	str	r2, [r3, #0]
D:\IntelligentVehicleProjects\K60_SmartCar_20160411\Debug/../05_Driver/uart/uart.c:54
       	break;
    2074:	e052      	b.n	211c <uart_init+0x10c>
D:\IntelligentVehicleProjects\K60_SmartCar_20160411\Debug/../05_Driver/uart/uart.c:66
        #if (UART_1_GROUP==2)
            PORTE_PCR0 = PORT_PCR_MUX(0x3); //UART1_TXD
            PORTE_PCR1 = PORT_PCR_MUX(0x3); //UART1_RXD
        #endif

        BSET(SIM_SCGC4_UART1_SHIFT, SIM_SCGC4); //1
    2076:	4954      	ldr	r1, [pc, #336]	; (21c8 <uart_init+0x1b8>)
    2078:	4b53      	ldr	r3, [pc, #332]	; (21c8 <uart_init+0x1b8>)
    207a:	f503 5381 	add.w	r3, r3, #4128	; 0x1020
    207e:	3314      	adds	r3, #20
    2080:	681b      	ldr	r3, [r3, #0]
    2082:	f443 6200 	orr.w	r2, r3, #2048	; 0x800
    2086:	f501 5381 	add.w	r3, r1, #4128	; 0x1020
    208a:	3314      	adds	r3, #20
    208c:	601a      	str	r2, [r3, #0]
D:\IntelligentVehicleProjects\K60_SmartCar_20160411\Debug/../05_Driver/uart/uart.c:67
        break;
    208e:	e045      	b.n	211c <uart_init+0x10c>
D:\IntelligentVehicleProjects\K60_SmartCar_20160411\Debug/../05_Driver/uart/uart.c:74
    	#if (UART_2_GROUP==1)
            PORTD_PCR3 = PORT_PCR_MUX(0x3); //UART2_TXD
            PORTD_PCR2 = PORT_PCR_MUX(0x3); //UART2_RXD
        #endif

            BSET(SIM_SCGC4_UART2_SHIFT, SIM_SCGC4);//2
    2090:	494d      	ldr	r1, [pc, #308]	; (21c8 <uart_init+0x1b8>)
    2092:	4b4d      	ldr	r3, [pc, #308]	; (21c8 <uart_init+0x1b8>)
    2094:	f503 5381 	add.w	r3, r3, #4128	; 0x1020
    2098:	3314      	adds	r3, #20
    209a:	681b      	ldr	r3, [r3, #0]
    209c:	f443 5280 	orr.w	r2, r3, #4096	; 0x1000
    20a0:	f501 5381 	add.w	r3, r1, #4128	; 0x1020
    20a4:	3314      	adds	r3, #20
    20a6:	601a      	str	r2, [r3, #0]
D:\IntelligentVehicleProjects\K60_SmartCar_20160411\Debug/../05_Driver/uart/uart.c:75
            break;
    20a8:	e038      	b.n	211c <uart_init+0x10c>
D:\IntelligentVehicleProjects\K60_SmartCar_20160411\Debug/../05_Driver/uart/uart.c:78
    case 3:
        #if (UART_3_GROUP==1)
            PORTB_PCR11 = PORT_PCR_MUX(0x3); //UART3_TXD
    20aa:	4b48      	ldr	r3, [pc, #288]	; (21cc <uart_init+0x1bc>)
    20ac:	f44f 7240 	mov.w	r2, #768	; 0x300
    20b0:	62da      	str	r2, [r3, #44]	; 0x2c
D:\IntelligentVehicleProjects\K60_SmartCar_20160411\Debug/../05_Driver/uart/uart.c:79
            PORTB_PCR10 = PORT_PCR_MUX(0x3); //UART3_RXD
    20b2:	4b46      	ldr	r3, [pc, #280]	; (21cc <uart_init+0x1bc>)
    20b4:	f44f 7240 	mov.w	r2, #768	; 0x300
    20b8:	629a      	str	r2, [r3, #40]	; 0x28
D:\IntelligentVehicleProjects\K60_SmartCar_20160411\Debug/../05_Driver/uart/uart.c:92
    	#if (UART_3_GROUP==3)
            PORTE_PCR4 = PORT_PCR_MUX(0x3); //UART3_TXD
            PORTE_PCR5 = PORT_PCR_MUX(0x3); //UART3_RXD
        #endif

        BSET(SIM_SCGC4_UART3_SHIFT, SIM_SCGC4);//3
    20ba:	4943      	ldr	r1, [pc, #268]	; (21c8 <uart_init+0x1b8>)
    20bc:	4b42      	ldr	r3, [pc, #264]	; (21c8 <uart_init+0x1b8>)
    20be:	f503 5381 	add.w	r3, r3, #4128	; 0x1020
    20c2:	3314      	adds	r3, #20
    20c4:	681b      	ldr	r3, [r3, #0]
    20c6:	f443 5200 	orr.w	r2, r3, #8192	; 0x2000
    20ca:	f501 5381 	add.w	r3, r1, #4128	; 0x1020
    20ce:	3314      	adds	r3, #20
    20d0:	601a      	str	r2, [r3, #0]
D:\IntelligentVehicleProjects\K60_SmartCar_20160411\Debug/../05_Driver/uart/uart.c:93
        break;
    20d2:	e023      	b.n	211c <uart_init+0x10c>
D:\IntelligentVehicleProjects\K60_SmartCar_20160411\Debug/../05_Driver/uart/uart.c:105
        #if (UART_4_GROUP==2)
            PORTE_PCR24 = PORT_PCR_MUX(0x3); //UART4_TXD
            PORTE_PCR25 = PORT_PCR_MUX(0x3); //UART4_RXD
    	#endif

        BSET(SIM_SCGC1_UART4_SHIFT, SIM_SCGC1); //4
    20d4:	493c      	ldr	r1, [pc, #240]	; (21c8 <uart_init+0x1b8>)
    20d6:	4b3c      	ldr	r3, [pc, #240]	; (21c8 <uart_init+0x1b8>)
    20d8:	f503 5381 	add.w	r3, r3, #4128	; 0x1020
    20dc:	3308      	adds	r3, #8
    20de:	681b      	ldr	r3, [r3, #0]
    20e0:	f443 6280 	orr.w	r2, r3, #1024	; 0x400
    20e4:	f501 5381 	add.w	r3, r1, #4128	; 0x1020
    20e8:	3308      	adds	r3, #8
    20ea:	601a      	str	r2, [r3, #0]
D:\IntelligentVehicleProjects\K60_SmartCar_20160411\Debug/../05_Driver/uart/uart.c:106
        break;
    20ec:	e016      	b.n	211c <uart_init+0x10c>
D:\IntelligentVehicleProjects\K60_SmartCar_20160411\Debug/../05_Driver/uart/uart.c:114
            PORTD_PCR9 = PORT_PCR_MUX(0x3); //UART4_TXD
            PORTD_PCR8 = PORT_PCR_MUX(0x3); //UART4_RXD
    	#endif

    	#if (UART_5_GROUP==2)
            PORTE_PCR8 = PORT_PCR_MUX(0x3); //UART5_TXD
    20ee:	4b38      	ldr	r3, [pc, #224]	; (21d0 <uart_init+0x1c0>)
    20f0:	f44f 7240 	mov.w	r2, #768	; 0x300
    20f4:	621a      	str	r2, [r3, #32]
D:\IntelligentVehicleProjects\K60_SmartCar_20160411\Debug/../05_Driver/uart/uart.c:115
            PORTE_PCR9 = PORT_PCR_MUX(0x3); //UART5_RXD
    20f6:	4b36      	ldr	r3, [pc, #216]	; (21d0 <uart_init+0x1c0>)
    20f8:	f44f 7240 	mov.w	r2, #768	; 0x300
    20fc:	625a      	str	r2, [r3, #36]	; 0x24
D:\IntelligentVehicleProjects\K60_SmartCar_20160411\Debug/../05_Driver/uart/uart.c:118
    	#endif

        BSET(SIM_SCGC1_UART5_SHIFT, SIM_SCGC1);//2
    20fe:	4932      	ldr	r1, [pc, #200]	; (21c8 <uart_init+0x1b8>)
    2100:	4b31      	ldr	r3, [pc, #196]	; (21c8 <uart_init+0x1b8>)
    2102:	f503 5381 	add.w	r3, r3, #4128	; 0x1020
    2106:	3308      	adds	r3, #8
    2108:	681b      	ldr	r3, [r3, #0]
    210a:	f443 6200 	orr.w	r2, r3, #2048	; 0x800
    210e:	f501 5381 	add.w	r3, r1, #4128	; 0x1020
    2112:	3308      	adds	r3, #8
    2114:	601a      	str	r2, [r3, #0]
D:\IntelligentVehicleProjects\K60_SmartCar_20160411\Debug/../05_Driver/uart/uart.c:119
        break;
    2116:	e001      	b.n	211c <uart_init+0x10c>
D:\IntelligentVehicleProjects\K60_SmartCar_20160411\Debug/../05_Driver/uart/uart.c:121
    default:
        return 1;  //
    2118:	2301      	movs	r3, #1
    211a:	e04b      	b.n	21b4 <uart_init+0x1a4>
D:\IntelligentVehicleProjects\K60_SmartCar_20160411\Debug/../05_Driver/uart/uart.c:125
        }

    //
    uartch->C2 &= ~(UART_C2_TE_MASK | UART_C2_RE_MASK);
    211c:	693b      	ldr	r3, [r7, #16]
    211e:	78db      	ldrb	r3, [r3, #3]
    2120:	b2db      	uxtb	r3, r3
    2122:	f023 030c 	bic.w	r3, r3, #12
    2126:	b2da      	uxtb	r2, r3
    2128:	693b      	ldr	r3, [r7, #16]
    212a:	70da      	strb	r2, [r3, #3]
D:\IntelligentVehicleProjects\K60_SmartCar_20160411\Debug/../05_Driver/uart/uart.c:128

	//,8
	uartch->C1 = 0;
    212c:	693b      	ldr	r3, [r7, #16]
    212e:	2200      	movs	r2, #0
    2130:	709a      	strb	r2, [r3, #2]
D:\IntelligentVehicleProjects\K60_SmartCar_20160411\Debug/../05_Driver/uart/uart.c:133


    //
    //012
    if (UART_0 == uartNo || UART_1 == uartNo)
    2132:	79fb      	ldrb	r3, [r7, #7]
    2134:	2b00      	cmp	r3, #0
    2136:	d002      	beq.n	213e <uart_init+0x12e>
D:\IntelligentVehicleProjects\K60_SmartCar_20160411\Debug/../05_Driver/uart/uart.c:133 (discriminator 1)
    2138:	79fb      	ldrb	r3, [r7, #7]
    213a:	2b01      	cmp	r3, #1
    213c:	d102      	bne.n	2144 <uart_init+0x134>
D:\IntelligentVehicleProjects\K60_SmartCar_20160411\Debug/../05_Driver/uart/uart.c:134
        sel_clk=CORE_CLK_KHz;
    213e:	4b25      	ldr	r3, [pc, #148]	; (21d4 <uart_init+0x1c4>)
    2140:	617b      	str	r3, [r7, #20]
    2142:	e002      	b.n	214a <uart_init+0x13a>
D:\IntelligentVehicleProjects\K60_SmartCar_20160411\Debug/../05_Driver/uart/uart.c:136
    else
    	sel_clk=BUS_CLK_KHz;
    2144:	f64b 3380 	movw	r3, #48000	; 0xbb80
    2148:	617b      	str	r3, [r7, #20]
D:\IntelligentVehicleProjects\K60_SmartCar_20160411\Debug/../05_Driver/uart/uart.c:138
    
    sbr = (uint16_t)((sel_clk*1000)/(baud * 16));
    214a:	697b      	ldr	r3, [r7, #20]
    214c:	f44f 727a 	mov.w	r2, #1000	; 0x3e8
    2150:	fb02 f203 	mul.w	r2, r2, r3
    2154:	683b      	ldr	r3, [r7, #0]
    2156:	011b      	lsls	r3, r3, #4
    2158:	fbb2 f3f3 	udiv	r3, r2, r3
    215c:	b29c      	uxth	r4, r3
D:\IntelligentVehicleProjects\K60_SmartCar_20160411\Debug/../05_Driver/uart/uart.c:139
    temp = UART_BDH_REG(uartch) & ~(UART_BDH_SBR(0x1F));
    215e:	693b      	ldr	r3, [r7, #16]
    2160:	781b      	ldrb	r3, [r3, #0]
    2162:	b2db      	uxtb	r3, r3
    2164:	f023 031f 	bic.w	r3, r3, #31
    2168:	73fb      	strb	r3, [r7, #15]
D:\IntelligentVehicleProjects\K60_SmartCar_20160411\Debug/../05_Driver/uart/uart.c:140
    UART_BDH_REG(uartch) = temp |  UART_BDH_SBR(((sbr & 0x1F00) >> 8));
    216a:	4623      	mov	r3, r4
    216c:	f403 53f8 	and.w	r3, r3, #7936	; 0x1f00
    2170:	121b      	asrs	r3, r3, #8
    2172:	b2db      	uxtb	r3, r3
    2174:	f003 031f 	and.w	r3, r3, #31
    2178:	b2da      	uxtb	r2, r3
    217a:	7bfb      	ldrb	r3, [r7, #15]
    217c:	4313      	orrs	r3, r2
    217e:	b2da      	uxtb	r2, r3
    2180:	693b      	ldr	r3, [r7, #16]
    2182:	701a      	strb	r2, [r3, #0]
D:\IntelligentVehicleProjects\K60_SmartCar_20160411\Debug/../05_Driver/uart/uart.c:141
    UART_BDL_REG(uartch) = (uint8_t)(sbr & UART_BDL_SBR_MASK);
    2184:	b2e2      	uxtb	r2, r4
    2186:	693b      	ldr	r3, [r7, #16]
    2188:	705a      	strb	r2, [r3, #1]
D:\IntelligentVehicleProjects\K60_SmartCar_20160411\Debug/../05_Driver/uart/uart.c:144
    
    //
    uartch->C1 = 0x00;
    218a:	693b      	ldr	r3, [r7, #16]
    218c:	2200      	movs	r2, #0
    218e:	709a      	strb	r2, [r3, #2]
D:\IntelligentVehicleProjects\K60_SmartCar_20160411\Debug/../05_Driver/uart/uart.c:145
    uartch->C3 = 0x00;
    2190:	693b      	ldr	r3, [r7, #16]
    2192:	2200      	movs	r2, #0
    2194:	719a      	strb	r2, [r3, #6]
D:\IntelligentVehicleProjects\K60_SmartCar_20160411\Debug/../05_Driver/uart/uart.c:146
    uartch->S1 = 0x1F;
    2196:	693b      	ldr	r3, [r7, #16]
    2198:	221f      	movs	r2, #31
    219a:	711a      	strb	r2, [r3, #4]
D:\IntelligentVehicleProjects\K60_SmartCar_20160411\Debug/../05_Driver/uart/uart.c:147
    uartch->S2 = 0x00;
    219c:	693b      	ldr	r3, [r7, #16]
    219e:	2200      	movs	r2, #0
    21a0:	715a      	strb	r2, [r3, #5]
D:\IntelligentVehicleProjects\K60_SmartCar_20160411\Debug/../05_Driver/uart/uart.c:150

    //
    UART_C2_REG(uartch) |= (UART_C2_TE_MASK | UART_C2_RE_MASK );
    21a2:	693b      	ldr	r3, [r7, #16]
    21a4:	78db      	ldrb	r3, [r3, #3]
    21a6:	b2db      	uxtb	r3, r3
    21a8:	f043 030c 	orr.w	r3, r3, #12
    21ac:	b2da      	uxtb	r2, r3
    21ae:	693b      	ldr	r3, [r7, #16]
    21b0:	70da      	strb	r2, [r3, #3]
D:\IntelligentVehicleProjects\K60_SmartCar_20160411\Debug/../05_Driver/uart/uart.c:151
    return 0;
    21b2:	2300      	movs	r3, #0
D:\IntelligentVehicleProjects\K60_SmartCar_20160411\Debug/../05_Driver/uart/uart.c:152
}
    21b4:	4618      	mov	r0, r3
    21b6:	3718      	adds	r7, #24
    21b8:	46bd      	mov	sp, r7
    21ba:	bc90      	pop	{r4, r7}
    21bc:	4770      	bx	lr
    21be:	bf00      	nop
    21c0:	00003980 	.word	0x00003980
    21c4:	4004c000 	.word	0x4004c000
    21c8:	40047000 	.word	0x40047000
    21cc:	4004a000 	.word	0x4004a000
    21d0:	4004d000 	.word	0x4004d000
    21d4:	00017700 	.word	0x00017700

000021d8 <uart_send1>:
uart_send1():
D:\IntelligentVehicleProjects\K60_SmartCar_20160411\Debug/../05_Driver/uart/uart.c:163
//          ch:
//0=0=
//1
//============================================================================
uint8_t uart_send1(uint8_t uartNo, uint8_t ch)
{
    21d8:	b480      	push	{r7}
    21da:	b085      	sub	sp, #20
    21dc:	af00      	add	r7, sp, #0
    21de:	4602      	mov	r2, r0
    21e0:	460b      	mov	r3, r1
    21e2:	71fa      	strb	r2, [r7, #7]
    21e4:	71bb      	strb	r3, [r7, #6]
D:\IntelligentVehicleProjects\K60_SmartCar_20160411\Debug/../05_Driver/uart/uart.c:165
    uint32_t t;
    UART_MemMapPtr uartch = UART_ARR[uartNo]; //UART12
    21e6:	79fa      	ldrb	r2, [r7, #7]
    21e8:	4b13      	ldr	r3, [pc, #76]	; (2238 <uart_send1+0x60>)
    21ea:	f853 3022 	ldr.w	r3, [r3, r2, lsl #2]
    21ee:	60bb      	str	r3, [r7, #8]
D:\IntelligentVehicleProjects\K60_SmartCar_20160411\Debug/../05_Driver/uart/uart.c:167

    for (t = 0; t < 0xFBBB; t++)//
    21f0:	2300      	movs	r3, #0
    21f2:	60fb      	str	r3, [r7, #12]
    21f4:	e00d      	b.n	2212 <uart_send1+0x3a>
D:\IntelligentVehicleProjects\K60_SmartCar_20160411\Debug/../05_Driver/uart/uart.c:169
    {
        if ( (uartch->S1) & UART_S1_TDRE_MASK )//
    21f6:	68bb      	ldr	r3, [r7, #8]
    21f8:	791b      	ldrb	r3, [r3, #4]
    21fa:	b2db      	uxtb	r3, r3
    21fc:	b2db      	uxtb	r3, r3
    21fe:	b25b      	sxtb	r3, r3
    2200:	2b00      	cmp	r3, #0
    2202:	da03      	bge.n	220c <uart_send1+0x34>
D:\IntelligentVehicleProjects\K60_SmartCar_20160411\Debug/../05_Driver/uart/uart.c:171
        {
	    uartch->D = ch;   //
    2204:	68bb      	ldr	r3, [r7, #8]
    2206:	79ba      	ldrb	r2, [r7, #6]
    2208:	71da      	strb	r2, [r3, #7]
D:\IntelligentVehicleProjects\K60_SmartCar_20160411\Debug/../05_Driver/uart/uart.c:172
	    break;             //
    220a:	e007      	b.n	221c <uart_send1+0x44>
D:\IntelligentVehicleProjects\K60_SmartCar_20160411\Debug/../05_Driver/uart/uart.c:167
uint8_t uart_send1(uint8_t uartNo, uint8_t ch)
{
    uint32_t t;
    UART_MemMapPtr uartch = UART_ARR[uartNo]; //UART12

    for (t = 0; t < 0xFBBB; t++)//
    220c:	68fb      	ldr	r3, [r7, #12]
    220e:	3301      	adds	r3, #1
    2210:	60fb      	str	r3, [r7, #12]
D:\IntelligentVehicleProjects\K60_SmartCar_20160411\Debug/../05_Driver/uart/uart.c:167 (discriminator 1)
    2212:	68fa      	ldr	r2, [r7, #12]
    2214:	f64f 33ba 	movw	r3, #64442	; 0xfbba
    2218:	429a      	cmp	r2, r3
    221a:	d9ec      	bls.n	21f6 <uart_send1+0x1e>
D:\IntelligentVehicleProjects\K60_SmartCar_20160411\Debug/../05_Driver/uart/uart.c:175
        {
	    uartch->D = ch;   //
	    break;             //
        }
   }//end for
   if (t >= 0xFBBB)
    221c:	68fa      	ldr	r2, [r7, #12]
    221e:	f64f 33ba 	movw	r3, #64442	; 0xfbba
    2222:	429a      	cmp	r2, r3
    2224:	d901      	bls.n	222a <uart_send1+0x52>
D:\IntelligentVehicleProjects\K60_SmartCar_20160411\Debug/../05_Driver/uart/uart.c:176
       return 1; //
    2226:	2301      	movs	r3, #1
    2228:	e000      	b.n	222c <uart_send1+0x54>
D:\IntelligentVehicleProjects\K60_SmartCar_20160411\Debug/../05_Driver/uart/uart.c:178
   else
       return 0; //
    222a:	2300      	movs	r3, #0
D:\IntelligentVehicleProjects\K60_SmartCar_20160411\Debug/../05_Driver/uart/uart.c:180

}
    222c:	4618      	mov	r0, r3
    222e:	3714      	adds	r7, #20
    2230:	46bd      	mov	sp, r7
    2232:	f85d 7b04 	ldr.w	r7, [sp], #4
    2236:	4770      	bx	lr
    2238:	00003980 	.word	0x00003980

0000223c <uart_re1>:
uart_re1():
D:\IntelligentVehicleProjects\K60_SmartCar_20160411\Debug/../05_Driver/uart/uart.c:236
//          fp::*fp=0*fp=1
//
//1
//============================================================================
uint8_t uart_re1 (uint8_t uartNo,uint8_t *fp)
{
    223c:	b480      	push	{r7}
    223e:	b087      	sub	sp, #28
    2240:	af00      	add	r7, sp, #0
    2242:	4603      	mov	r3, r0
    2244:	6039      	str	r1, [r7, #0]
    2246:	71fb      	strb	r3, [r7, #7]
D:\IntelligentVehicleProjects\K60_SmartCar_20160411\Debug/../05_Driver/uart/uart.c:239
    uint32_t t;
    uint8_t  dat;
    UART_MemMapPtr uartch= UART_ARR[uartNo];//UART12
    2248:	79fa      	ldrb	r2, [r7, #7]
    224a:	4b17      	ldr	r3, [pc, #92]	; (22a8 <uart_re1+0x6c>)
    224c:	f853 3022 	ldr.w	r3, [r3, r2, lsl #2]
    2250:	60fb      	str	r3, [r7, #12]
D:\IntelligentVehicleProjects\K60_SmartCar_20160411\Debug/../05_Driver/uart/uart.c:241

    for (t = 0; t < 0xFBBB; t++)//
    2252:	2300      	movs	r3, #0
    2254:	617b      	str	r3, [r7, #20]
    2256:	e010      	b.n	227a <uart_re1+0x3e>
D:\IntelligentVehicleProjects\K60_SmartCar_20160411\Debug/../05_Driver/uart/uart.c:244
    {
    	//
        if ((uartch->S1) & UART_S1_RDRF_MASK )
    2258:	68fb      	ldr	r3, [r7, #12]
    225a:	791b      	ldrb	r3, [r3, #4]
    225c:	b2db      	uxtb	r3, r3
    225e:	f003 0320 	and.w	r3, r3, #32
    2262:	2b00      	cmp	r3, #0
    2264:	d006      	beq.n	2274 <uart_re1+0x38>
D:\IntelligentVehicleProjects\K60_SmartCar_20160411\Debug/../05_Driver/uart/uart.c:246
        {
        	dat = uartch->D; //
    2266:	68fb      	ldr	r3, [r7, #12]
    2268:	79db      	ldrb	r3, [r3, #7]
    226a:	74fb      	strb	r3, [r7, #19]
D:\IntelligentVehicleProjects\K60_SmartCar_20160411\Debug/../05_Driver/uart/uart.c:247
        	*fp= 0;  //
    226c:	683b      	ldr	r3, [r7, #0]
    226e:	2200      	movs	r2, #0
    2270:	701a      	strb	r2, [r3, #0]
D:\IntelligentVehicleProjects\K60_SmartCar_20160411\Debug/../05_Driver/uart/uart.c:248
        	break;
    2272:	e007      	b.n	2284 <uart_re1+0x48>
D:\IntelligentVehicleProjects\K60_SmartCar_20160411\Debug/../05_Driver/uart/uart.c:241
{
    uint32_t t;
    uint8_t  dat;
    UART_MemMapPtr uartch= UART_ARR[uartNo];//UART12

    for (t = 0; t < 0xFBBB; t++)//
    2274:	697b      	ldr	r3, [r7, #20]
    2276:	3301      	adds	r3, #1
    2278:	617b      	str	r3, [r7, #20]
D:\IntelligentVehicleProjects\K60_SmartCar_20160411\Debug/../05_Driver/uart/uart.c:241 (discriminator 1)
    227a:	697a      	ldr	r2, [r7, #20]
    227c:	f64f 33ba 	movw	r3, #64442	; 0xfbba
    2280:	429a      	cmp	r2, r3
    2282:	d9e9      	bls.n	2258 <uart_re1+0x1c>
D:\IntelligentVehicleProjects\K60_SmartCar_20160411\Debug/../05_Driver/uart/uart.c:252
        	*fp= 0;  //
        	break;
        }

    }//end for
    if(t >= 0xFBBB)
    2284:	697a      	ldr	r2, [r7, #20]
    2286:	f64f 33ba 	movw	r3, #64442	; 0xfbba
    228a:	429a      	cmp	r2, r3
    228c:	d904      	bls.n	2298 <uart_re1+0x5c>
D:\IntelligentVehicleProjects\K60_SmartCar_20160411\Debug/../05_Driver/uart/uart.c:254
    {
        dat = 0xFF;
    228e:	23ff      	movs	r3, #255	; 0xff
    2290:	74fb      	strb	r3, [r7, #19]
D:\IntelligentVehicleProjects\K60_SmartCar_20160411\Debug/../05_Driver/uart/uart.c:255
        *fp = 1;    //
    2292:	683b      	ldr	r3, [r7, #0]
    2294:	2201      	movs	r2, #1
    2296:	701a      	strb	r2, [r3, #0]
D:\IntelligentVehicleProjects\K60_SmartCar_20160411\Debug/../05_Driver/uart/uart.c:257
    }
    return dat;    //
    2298:	7cfb      	ldrb	r3, [r7, #19]
D:\IntelligentVehicleProjects\K60_SmartCar_20160411\Debug/../05_Driver/uart/uart.c:259

}
    229a:	4618      	mov	r0, r3
    229c:	371c      	adds	r7, #28
    229e:	46bd      	mov	sp, r7
    22a0:	f85d 7b04 	ldr.w	r7, [sp], #4
    22a4:	4770      	bx	lr
    22a6:	bf00      	nop
    22a8:	00003980 	.word	0x00003980

000022ac <uart_enable_re_int>:
uart_enable_re_int():
D:\IntelligentVehicleProjects\K60_SmartCar_20160411\Debug/../05_Driver/uart/uart.c:294
//uartNo: :UART_0UART_1UART_2UART_3UART_4UART_5
//
//
//============================================================================
void uart_enable_re_int(uint8_t uartNo)
{
    22ac:	b580      	push	{r7, lr}
    22ae:	b084      	sub	sp, #16
    22b0:	af00      	add	r7, sp, #0
    22b2:	4603      	mov	r3, r0
    22b4:	71fb      	strb	r3, [r7, #7]
D:\IntelligentVehicleProjects\K60_SmartCar_20160411\Debug/../05_Driver/uart/uart.c:295
    UART_MemMapPtr uartch = UART_ARR[uartNo];
    22b6:	79fa      	ldrb	r2, [r7, #7]
    22b8:	4b0a      	ldr	r3, [pc, #40]	; (22e4 <uart_enable_re_int+0x38>)
    22ba:	f853 3022 	ldr.w	r3, [r3, r2, lsl #2]
    22be:	60fb      	str	r3, [r7, #12]
D:\IntelligentVehicleProjects\K60_SmartCar_20160411\Debug/../05_Driver/uart/uart.c:296
    uartch->C2 |= UART_C2_RIE_MASK;        //UART
    22c0:	68fb      	ldr	r3, [r7, #12]
    22c2:	78db      	ldrb	r3, [r3, #3]
    22c4:	b2db      	uxtb	r3, r3
    22c6:	f043 0320 	orr.w	r3, r3, #32
    22ca:	b2da      	uxtb	r2, r3
    22cc:	68fb      	ldr	r3, [r7, #12]
    22ce:	70da      	strb	r2, [r3, #3]
D:\IntelligentVehicleProjects\K60_SmartCar_20160411\Debug/../05_Driver/uart/uart.c:297
    enable_irq(table_irq_uart[uartNo]);   //IRQ
    22d0:	79fb      	ldrb	r3, [r7, #7]
    22d2:	4a05      	ldr	r2, [pc, #20]	; (22e8 <uart_enable_re_int+0x3c>)
    22d4:	5cd3      	ldrb	r3, [r2, r3]
    22d6:	4618      	mov	r0, r3
    22d8:	f000 ff5c 	bl	3194 <enable_irq>
D:\IntelligentVehicleProjects\K60_SmartCar_20160411\Debug/../05_Driver/uart/uart.c:298
}
    22dc:	3710      	adds	r7, #16
    22de:	46bd      	mov	sp, r7
    22e0:	bd80      	pop	{r7, pc}
    22e2:	bf00      	nop
    22e4:	00003980 	.word	0x00003980
    22e8:	00003998 	.word	0x00003998

000022ec <pwm_init>:
pwm_init():
D:\IntelligentVehicleProjects\K60_SmartCar_20160411\Debug/../05_Driver/pwm/pwm.c:24
//			1	
//			2	
//			3	
//=========================================================================
uint8_t pwm_init(uint8_t ftmModule, uint8_t channel, uint32_t period, uint16_t duty)
{
    22ec:	b480      	push	{r7}
    22ee:	b087      	sub	sp, #28
    22f0:	af00      	add	r7, sp, #0
    22f2:	603a      	str	r2, [r7, #0]
    22f4:	4602      	mov	r2, r0
    22f6:	71fa      	strb	r2, [r7, #7]
    22f8:	460a      	mov	r2, r1
    22fa:	71ba      	strb	r2, [r7, #6]
    22fc:	80bb      	strh	r3, [r7, #4]
D:\IntelligentVehicleProjects\K60_SmartCar_20160411\Debug/../05_Driver/pwm/pwm.c:25
	uint32_t clk_hz = (bus_clk_khz * 1000) >> 1;       //bus/2  bus_clk_khz = 50000
    22fe:	4ba5      	ldr	r3, [pc, #660]	; (2594 <pwm_init+0x2a8>)
    2300:	613b      	str	r3, [r7, #16]
D:\IntelligentVehicleProjects\K60_SmartCar_20160411\Debug/../05_Driver/pwm/pwm.c:31
	uint16_t mod;
	uint8_t sc_ps;
	uint16_t cv;

	//
	if(!( (ftmModule == FTM0) || ( (ftmModule == FTM1 || ftmModule == FTM2 ) && (channel <= FTMCH1))   ))
    2302:	79fb      	ldrb	r3, [r7, #7]
    2304:	2b00      	cmp	r3, #0
    2306:	d00a      	beq.n	231e <pwm_init+0x32>
D:\IntelligentVehicleProjects\K60_SmartCar_20160411\Debug/../05_Driver/pwm/pwm.c:31 (discriminator 1)
    2308:	79fb      	ldrb	r3, [r7, #7]
    230a:	2b01      	cmp	r3, #1
    230c:	d002      	beq.n	2314 <pwm_init+0x28>
    230e:	79fb      	ldrb	r3, [r7, #7]
    2310:	2b02      	cmp	r3, #2
    2312:	d102      	bne.n	231a <pwm_init+0x2e>
D:\IntelligentVehicleProjects\K60_SmartCar_20160411\Debug/../05_Driver/pwm/pwm.c:31 (discriminator 2)
    2314:	79bb      	ldrb	r3, [r7, #6]
    2316:	2b01      	cmp	r3, #1
    2318:	d901      	bls.n	231e <pwm_init+0x32>
D:\IntelligentVehicleProjects\K60_SmartCar_20160411\Debug/../05_Driver/pwm/pwm.c:32
		return 1;		//
    231a:	2301      	movs	r3, #1
    231c:	e197      	b.n	264e <pwm_init+0x362>
D:\IntelligentVehicleProjects\K60_SmartCar_20160411\Debug/../05_Driver/pwm/pwm.c:35

	//   ,
	if(!( period <= (clk_hz >> 1) ))
    231e:	693b      	ldr	r3, [r7, #16]
    2320:	085a      	lsrs	r2, r3, #1
    2322:	683b      	ldr	r3, [r7, #0]
    2324:	429a      	cmp	r2, r3
    2326:	d201      	bcs.n	232c <pwm_init+0x40>
D:\IntelligentVehicleProjects\K60_SmartCar_20160411\Debug/../05_Driver/pwm/pwm.c:36
		return 2;		//
    2328:	2302      	movs	r3, #2
    232a:	e190      	b.n	264e <pwm_init+0x362>
D:\IntelligentVehicleProjects\K60_SmartCar_20160411\Debug/../05_Driver/pwm/pwm.c:39

	/*              */
	mod = (clk_hz >> 16 ) / period ;
    232c:	693b      	ldr	r3, [r7, #16]
    232e:	0c1a      	lsrs	r2, r3, #16
    2330:	683b      	ldr	r3, [r7, #0]
    2332:	fbb2 f3f3 	udiv	r3, r2, r3
    2336:	81fb      	strh	r3, [r7, #14]
D:\IntelligentVehicleProjects\K60_SmartCar_20160411\Debug/../05_Driver/pwm/pwm.c:40
	for(sc_ps = 0; (mod >> sc_ps) >= 1; sc_ps++);
    2338:	2300      	movs	r3, #0
    233a:	75fb      	strb	r3, [r7, #23]
    233c:	e002      	b.n	2344 <pwm_init+0x58>
D:\IntelligentVehicleProjects\K60_SmartCar_20160411\Debug/../05_Driver/pwm/pwm.c:40 (discriminator 2)
    233e:	7dfb      	ldrb	r3, [r7, #23]
    2340:	3301      	adds	r3, #1
    2342:	75fb      	strb	r3, [r7, #23]
D:\IntelligentVehicleProjects\K60_SmartCar_20160411\Debug/../05_Driver/pwm/pwm.c:40 (discriminator 1)
    2344:	89fa      	ldrh	r2, [r7, #14]
    2346:	7dfb      	ldrb	r3, [r7, #23]
    2348:	fa42 f303 	asr.w	r3, r2, r3
    234c:	2b00      	cmp	r3, #0
    234e:	dcf6      	bgt.n	233e <pwm_init+0x52>
D:\IntelligentVehicleProjects\K60_SmartCar_20160411\Debug/../05_Driver/pwm/pwm.c:41
	if(period < 1000)sc_ps++;
    2350:	683b      	ldr	r3, [r7, #0]
    2352:	f5b3 7f7a 	cmp.w	r3, #1000	; 0x3e8
    2356:	d202      	bcs.n	235e <pwm_init+0x72>
D:\IntelligentVehicleProjects\K60_SmartCar_20160411\Debug/../05_Driver/pwm/pwm.c:41 (discriminator 1)
    2358:	7dfb      	ldrb	r3, [r7, #23]
    235a:	3301      	adds	r3, #1
    235c:	75fb      	strb	r3, [r7, #23]
D:\IntelligentVehicleProjects\K60_SmartCar_20160411\Debug/../05_Driver/pwm/pwm.c:43

	mod = (clk_hz >> sc_ps) / period;                        //,clk_hz = 25000000
    235e:	7dfb      	ldrb	r3, [r7, #23]
    2360:	693a      	ldr	r2, [r7, #16]
    2362:	40da      	lsrs	r2, r3
    2364:	683b      	ldr	r3, [r7, #0]
    2366:	fbb2 f3f3 	udiv	r3, r2, r3
    236a:	81fb      	strh	r3, [r7, #14]
D:\IntelligentVehicleProjects\K60_SmartCar_20160411\Debug/../05_Driver/pwm/pwm.c:45

	cv = (duty * (mod - 0 + 1)) / PWM_ACCURACY;            //
    236c:	88bb      	ldrh	r3, [r7, #4]
    236e:	89fa      	ldrh	r2, [r7, #14]
    2370:	3201      	adds	r2, #1
    2372:	fb02 f303 	mul.w	r3, r2, r3
    2376:	4a88      	ldr	r2, [pc, #544]	; (2598 <pwm_init+0x2ac>)
    2378:	fb82 1203 	smull	r1, r2, r2, r3
    237c:	1312      	asrs	r2, r2, #12
    237e:	17db      	asrs	r3, r3, #31
    2380:	1ad3      	subs	r3, r2, r3
    2382:	81bb      	strh	r3, [r7, #12]
D:\IntelligentVehicleProjects\K60_SmartCar_20160411\Debug/../05_Driver/pwm/pwm.c:49

	/*******************   IO*******************/
	//
	switch(ftmModule)
    2384:	79fb      	ldrb	r3, [r7, #7]
    2386:	2b01      	cmp	r3, #1
    2388:	f000 80b5 	beq.w	24f6 <pwm_init+0x20a>
    238c:	2b02      	cmp	r3, #2
    238e:	f000 80e9 	beq.w	2564 <pwm_init+0x278>
    2392:	2b00      	cmp	r3, #0
    2394:	d000      	beq.n	2398 <pwm_init+0xac>
D:\IntelligentVehicleProjects\K60_SmartCar_20160411\Debug/../05_Driver/pwm/pwm.c:291
		default:
			return 3;
		}
		break;
	default:
		break;
    2396:	e109      	b.n	25ac <pwm_init+0x2c0>
D:\IntelligentVehicleProjects\K60_SmartCar_20160411\Debug/../05_Driver/pwm/pwm.c:52
	/*******************   IO*******************/
	//
	switch(ftmModule)
	{
	case FTM0:
		SIM_SCGC6 |= SIM_SCGC6_FTM0_MASK;                           //FTM0
    2398:	4980      	ldr	r1, [pc, #512]	; (259c <pwm_init+0x2b0>)
    239a:	4b80      	ldr	r3, [pc, #512]	; (259c <pwm_init+0x2b0>)
    239c:	f503 5381 	add.w	r3, r3, #4128	; 0x1020
    23a0:	331c      	adds	r3, #28
    23a2:	681b      	ldr	r3, [r3, #0]
    23a4:	f043 7280 	orr.w	r2, r3, #16777216	; 0x1000000
    23a8:	f501 5381 	add.w	r3, r1, #4128	; 0x1020
    23ac:	331c      	adds	r3, #28
    23ae:	601a      	str	r2, [r3, #0]
D:\IntelligentVehicleProjects\K60_SmartCar_20160411\Debug/../05_Driver/pwm/pwm.c:53
		switch(channel)
    23b0:	79bb      	ldrb	r3, [r7, #6]
    23b2:	2b07      	cmp	r3, #7
    23b4:	f200 809c 	bhi.w	24f0 <pwm_init+0x204>
    23b8:	a201      	add	r2, pc, #4	; (adr r2, 23c0 <pwm_init+0xd4>)
    23ba:	f852 f023 	ldr.w	pc, [r2, r3, lsl #2]
    23be:	bf00      	nop
    23c0:	000023e1 	.word	0x000023e1
    23c4:	00002403 	.word	0x00002403
    23c8:	00002425 	.word	0x00002425
    23cc:	00002447 	.word	0x00002447
    23d0:	00002469 	.word	0x00002469
    23d4:	0000248b 	.word	0x0000248b
    23d8:	000024ad 	.word	0x000024ad
    23dc:	000024cf 	.word	0x000024cf
D:\IntelligentVehicleProjects\K60_SmartCar_20160411\Debug/../05_Driver/pwm/pwm.c:58
		{
		case FTMCH0:
			if(FTM0_CH0 == (PORTC|1))
			{
				SIM_SCGC5 |= SIM_SCGC5_PORTC_MASK;
    23e0:	496e      	ldr	r1, [pc, #440]	; (259c <pwm_init+0x2b0>)
    23e2:	4b6e      	ldr	r3, [pc, #440]	; (259c <pwm_init+0x2b0>)
    23e4:	f503 5381 	add.w	r3, r3, #4128	; 0x1020
    23e8:	3318      	adds	r3, #24
    23ea:	681b      	ldr	r3, [r3, #0]
    23ec:	f443 6200 	orr.w	r2, r3, #2048	; 0x800
    23f0:	f501 5381 	add.w	r3, r1, #4128	; 0x1020
    23f4:	3318      	adds	r3, #24
    23f6:	601a      	str	r2, [r3, #0]
D:\IntelligentVehicleProjects\K60_SmartCar_20160411\Debug/../05_Driver/pwm/pwm.c:59
				PORT_PCR_REG(PORTC_BASE_PTR, 1) = PORT_PCR_MUX(4);  // PTC1
    23f8:	4b69      	ldr	r3, [pc, #420]	; (25a0 <pwm_init+0x2b4>)
    23fa:	f44f 6280 	mov.w	r2, #1024	; 0x400
    23fe:	605a      	str	r2, [r3, #4]
D:\IntelligentVehicleProjects\K60_SmartCar_20160411\Debug/../05_Driver/pwm/pwm.c:70
			}
			else
			{
				return 3;                   //
			}
			break;
    2400:	e078      	b.n	24f4 <pwm_init+0x208>
D:\IntelligentVehicleProjects\K60_SmartCar_20160411\Debug/../05_Driver/pwm/pwm.c:75

		case FTMCH1:
			if(FTM0_CH1 == (PORTC|2))
			{
				SIM_SCGC5 |= SIM_SCGC5_PORTC_MASK;
    2402:	4966      	ldr	r1, [pc, #408]	; (259c <pwm_init+0x2b0>)
    2404:	4b65      	ldr	r3, [pc, #404]	; (259c <pwm_init+0x2b0>)
    2406:	f503 5381 	add.w	r3, r3, #4128	; 0x1020
    240a:	3318      	adds	r3, #24
    240c:	681b      	ldr	r3, [r3, #0]
    240e:	f443 6200 	orr.w	r2, r3, #2048	; 0x800
    2412:	f501 5381 	add.w	r3, r1, #4128	; 0x1020
    2416:	3318      	adds	r3, #24
    2418:	601a      	str	r2, [r3, #0]
D:\IntelligentVehicleProjects\K60_SmartCar_20160411\Debug/../05_Driver/pwm/pwm.c:76
				PORT_PCR_REG(PORTC_BASE_PTR, 2) = PORT_PCR_MUX(4);  // PTC2
    241a:	4b61      	ldr	r3, [pc, #388]	; (25a0 <pwm_init+0x2b4>)
    241c:	f44f 6280 	mov.w	r2, #1024	; 0x400
    2420:	609a      	str	r2, [r3, #8]
D:\IntelligentVehicleProjects\K60_SmartCar_20160411\Debug/../05_Driver/pwm/pwm.c:87
			}
			else
			{
				return 3;                     //
			}
			break;
    2422:	e067      	b.n	24f4 <pwm_init+0x208>
D:\IntelligentVehicleProjects\K60_SmartCar_20160411\Debug/../05_Driver/pwm/pwm.c:92

		case FTMCH2:
			if(FTM0_CH2 == (PORTC|3))
			{
				SIM_SCGC5 |= SIM_SCGC5_PORTC_MASK;
    2424:	495d      	ldr	r1, [pc, #372]	; (259c <pwm_init+0x2b0>)
    2426:	4b5d      	ldr	r3, [pc, #372]	; (259c <pwm_init+0x2b0>)
    2428:	f503 5381 	add.w	r3, r3, #4128	; 0x1020
    242c:	3318      	adds	r3, #24
    242e:	681b      	ldr	r3, [r3, #0]
    2430:	f443 6200 	orr.w	r2, r3, #2048	; 0x800
    2434:	f501 5381 	add.w	r3, r1, #4128	; 0x1020
    2438:	3318      	adds	r3, #24
    243a:	601a      	str	r2, [r3, #0]
D:\IntelligentVehicleProjects\K60_SmartCar_20160411\Debug/../05_Driver/pwm/pwm.c:93
				PORT_PCR_REG(PORTC_BASE_PTR, 3) = PORT_PCR_MUX(4);  // PTC3
    243c:	4b58      	ldr	r3, [pc, #352]	; (25a0 <pwm_init+0x2b4>)
    243e:	f44f 6280 	mov.w	r2, #1024	; 0x400
    2442:	60da      	str	r2, [r3, #12]
D:\IntelligentVehicleProjects\K60_SmartCar_20160411\Debug/../05_Driver/pwm/pwm.c:104
			}
			else
			{
				return 3;                     //
			}
			break;
    2444:	e056      	b.n	24f4 <pwm_init+0x208>
D:\IntelligentVehicleProjects\K60_SmartCar_20160411\Debug/../05_Driver/pwm/pwm.c:109

		case FTMCH3:
			if(FTM0_CH3 == (PORTC|4))
			{
				SIM_SCGC5 |= SIM_SCGC5_PORTC_MASK;
    2446:	4955      	ldr	r1, [pc, #340]	; (259c <pwm_init+0x2b0>)
    2448:	4b54      	ldr	r3, [pc, #336]	; (259c <pwm_init+0x2b0>)
    244a:	f503 5381 	add.w	r3, r3, #4128	; 0x1020
    244e:	3318      	adds	r3, #24
    2450:	681b      	ldr	r3, [r3, #0]
    2452:	f443 6200 	orr.w	r2, r3, #2048	; 0x800
    2456:	f501 5381 	add.w	r3, r1, #4128	; 0x1020
    245a:	3318      	adds	r3, #24
    245c:	601a      	str	r2, [r3, #0]
D:\IntelligentVehicleProjects\K60_SmartCar_20160411\Debug/../05_Driver/pwm/pwm.c:110
				PORT_PCR_REG(PORTC_BASE_PTR, 4) = PORT_PCR_MUX(4);  // PTC4
    245e:	4b50      	ldr	r3, [pc, #320]	; (25a0 <pwm_init+0x2b4>)
    2460:	f44f 6280 	mov.w	r2, #1024	; 0x400
    2464:	611a      	str	r2, [r3, #16]
D:\IntelligentVehicleProjects\K60_SmartCar_20160411\Debug/../05_Driver/pwm/pwm.c:121
			}
			else
			{
				return 3;                     //
			}
			break;
    2466:	e045      	b.n	24f4 <pwm_init+0x208>
D:\IntelligentVehicleProjects\K60_SmartCar_20160411\Debug/../05_Driver/pwm/pwm.c:126

		case FTMCH4:
			if(FTM0_CH4 == (PORTD|4))
			{
				SIM_SCGC5 |= SIM_SCGC5_PORTD_MASK;
    2468:	494c      	ldr	r1, [pc, #304]	; (259c <pwm_init+0x2b0>)
    246a:	4b4c      	ldr	r3, [pc, #304]	; (259c <pwm_init+0x2b0>)
    246c:	f503 5381 	add.w	r3, r3, #4128	; 0x1020
    2470:	3318      	adds	r3, #24
    2472:	681b      	ldr	r3, [r3, #0]
    2474:	f443 5280 	orr.w	r2, r3, #4096	; 0x1000
    2478:	f501 5381 	add.w	r3, r1, #4128	; 0x1020
    247c:	3318      	adds	r3, #24
    247e:	601a      	str	r2, [r3, #0]
D:\IntelligentVehicleProjects\K60_SmartCar_20160411\Debug/../05_Driver/pwm/pwm.c:127
				PORT_PCR_REG(PORTD_BASE_PTR, 4) = PORT_PCR_MUX(4);  // PTD4
    2480:	4b48      	ldr	r3, [pc, #288]	; (25a4 <pwm_init+0x2b8>)
    2482:	f44f 6280 	mov.w	r2, #1024	; 0x400
    2486:	611a      	str	r2, [r3, #16]
D:\IntelligentVehicleProjects\K60_SmartCar_20160411\Debug/../05_Driver/pwm/pwm.c:138
			}
			else
			{
				return 3;                    //
			}
			break;
    2488:	e034      	b.n	24f4 <pwm_init+0x208>
D:\IntelligentVehicleProjects\K60_SmartCar_20160411\Debug/../05_Driver/pwm/pwm.c:143

		case FTMCH5:
			if(FTM0_CH5 == (PORTD|5))
			{
				SIM_SCGC5 |= SIM_SCGC5_PORTD_MASK;
    248a:	4944      	ldr	r1, [pc, #272]	; (259c <pwm_init+0x2b0>)
    248c:	4b43      	ldr	r3, [pc, #268]	; (259c <pwm_init+0x2b0>)
    248e:	f503 5381 	add.w	r3, r3, #4128	; 0x1020
    2492:	3318      	adds	r3, #24
    2494:	681b      	ldr	r3, [r3, #0]
    2496:	f443 5280 	orr.w	r2, r3, #4096	; 0x1000
    249a:	f501 5381 	add.w	r3, r1, #4128	; 0x1020
    249e:	3318      	adds	r3, #24
    24a0:	601a      	str	r2, [r3, #0]
D:\IntelligentVehicleProjects\K60_SmartCar_20160411\Debug/../05_Driver/pwm/pwm.c:144
				PORT_PCR_REG(PORTD_BASE_PTR, 5) = PORT_PCR_MUX(4);  // PTD5
    24a2:	4b40      	ldr	r3, [pc, #256]	; (25a4 <pwm_init+0x2b8>)
    24a4:	f44f 6280 	mov.w	r2, #1024	; 0x400
    24a8:	615a      	str	r2, [r3, #20]
D:\IntelligentVehicleProjects\K60_SmartCar_20160411\Debug/../05_Driver/pwm/pwm.c:155
			}
			else
			{
				return 3;                     //
			}
			break;
    24aa:	e023      	b.n	24f4 <pwm_init+0x208>
D:\IntelligentVehicleProjects\K60_SmartCar_20160411\Debug/../05_Driver/pwm/pwm.c:160

		case FTMCH6:
			if(FTM0_CH6 == (PORTD|6))
			{
				SIM_SCGC5 |= SIM_SCGC5_PORTD_MASK;
    24ac:	493b      	ldr	r1, [pc, #236]	; (259c <pwm_init+0x2b0>)
    24ae:	4b3b      	ldr	r3, [pc, #236]	; (259c <pwm_init+0x2b0>)
    24b0:	f503 5381 	add.w	r3, r3, #4128	; 0x1020
    24b4:	3318      	adds	r3, #24
    24b6:	681b      	ldr	r3, [r3, #0]
    24b8:	f443 5280 	orr.w	r2, r3, #4096	; 0x1000
    24bc:	f501 5381 	add.w	r3, r1, #4128	; 0x1020
    24c0:	3318      	adds	r3, #24
    24c2:	601a      	str	r2, [r3, #0]
D:\IntelligentVehicleProjects\K60_SmartCar_20160411\Debug/../05_Driver/pwm/pwm.c:161
				PORT_PCR_REG(PORTD_BASE_PTR, 6) = PORT_PCR_MUX(4);  // PTD6
    24c4:	4b37      	ldr	r3, [pc, #220]	; (25a4 <pwm_init+0x2b8>)
    24c6:	f44f 6280 	mov.w	r2, #1024	; 0x400
    24ca:	619a      	str	r2, [r3, #24]
D:\IntelligentVehicleProjects\K60_SmartCar_20160411\Debug/../05_Driver/pwm/pwm.c:172
			}
			else
			{
				return 3;                     //
			}
			break;
    24cc:	e012      	b.n	24f4 <pwm_init+0x208>
D:\IntelligentVehicleProjects\K60_SmartCar_20160411\Debug/../05_Driver/pwm/pwm.c:177

		case FTMCH7:
			if(FTM0_CH7 == (PORTD|7))
			{
				SIM_SCGC5 |= SIM_SCGC5_PORTD_MASK;
    24ce:	4933      	ldr	r1, [pc, #204]	; (259c <pwm_init+0x2b0>)
    24d0:	4b32      	ldr	r3, [pc, #200]	; (259c <pwm_init+0x2b0>)
    24d2:	f503 5381 	add.w	r3, r3, #4128	; 0x1020
    24d6:	3318      	adds	r3, #24
    24d8:	681b      	ldr	r3, [r3, #0]
    24da:	f443 5280 	orr.w	r2, r3, #4096	; 0x1000
    24de:	f501 5381 	add.w	r3, r1, #4128	; 0x1020
    24e2:	3318      	adds	r3, #24
    24e4:	601a      	str	r2, [r3, #0]
D:\IntelligentVehicleProjects\K60_SmartCar_20160411\Debug/../05_Driver/pwm/pwm.c:178
				PORT_PCR_REG(PORTD_BASE_PTR, 7) = PORT_PCR_MUX(4);  // PTD7
    24e6:	4b2f      	ldr	r3, [pc, #188]	; (25a4 <pwm_init+0x2b8>)
    24e8:	f44f 6280 	mov.w	r2, #1024	; 0x400
    24ec:	61da      	str	r2, [r3, #28]
D:\IntelligentVehicleProjects\K60_SmartCar_20160411\Debug/../05_Driver/pwm/pwm.c:189
			}
			else
			{
				return 3;                     //
			}
			break;
    24ee:	e001      	b.n	24f4 <pwm_init+0x208>
D:\IntelligentVehicleProjects\K60_SmartCar_20160411\Debug/../05_Driver/pwm/pwm.c:191
		default:
			return 3;
    24f0:	2303      	movs	r3, #3
    24f2:	e0ac      	b.n	264e <pwm_init+0x362>
D:\IntelligentVehicleProjects\K60_SmartCar_20160411\Debug/../05_Driver/pwm/pwm.c:193
		}
		break;
    24f4:	e05a      	b.n	25ac <pwm_init+0x2c0>
D:\IntelligentVehicleProjects\K60_SmartCar_20160411\Debug/../05_Driver/pwm/pwm.c:196

	case FTM1:
		SIM_SCGC6 |= SIM_SCGC6_FTM1_MASK;                           //FTM1
    24f6:	4929      	ldr	r1, [pc, #164]	; (259c <pwm_init+0x2b0>)
    24f8:	4b28      	ldr	r3, [pc, #160]	; (259c <pwm_init+0x2b0>)
    24fa:	f503 5381 	add.w	r3, r3, #4128	; 0x1020
    24fe:	331c      	adds	r3, #28
    2500:	681b      	ldr	r3, [r3, #0]
    2502:	f043 7200 	orr.w	r2, r3, #33554432	; 0x2000000
    2506:	f501 5381 	add.w	r3, r1, #4128	; 0x1020
    250a:	331c      	adds	r3, #28
    250c:	601a      	str	r2, [r3, #0]
D:\IntelligentVehicleProjects\K60_SmartCar_20160411\Debug/../05_Driver/pwm/pwm.c:197
		switch(channel)
    250e:	79bb      	ldrb	r3, [r7, #6]
    2510:	2b00      	cmp	r3, #0
    2512:	d002      	beq.n	251a <pwm_init+0x22e>
    2514:	2b01      	cmp	r3, #1
    2516:	d011      	beq.n	253c <pwm_init+0x250>
    2518:	e021      	b.n	255e <pwm_init+0x272>
D:\IntelligentVehicleProjects\K60_SmartCar_20160411\Debug/../05_Driver/pwm/pwm.c:207
				SIM_SCGC5 |= SIM_SCGC5_PORTA_MASK;
				PORT_PCR_REG(PORTA_BASE_PTR, 8) = PORT_PCR_MUX(3);  // PTA8
			}
			else if(FTM1_CH0 == (PORTA|12))
			{
				SIM_SCGC5 |= SIM_SCGC5_PORTA_MASK;
    251a:	4920      	ldr	r1, [pc, #128]	; (259c <pwm_init+0x2b0>)
    251c:	4b1f      	ldr	r3, [pc, #124]	; (259c <pwm_init+0x2b0>)
    251e:	f503 5381 	add.w	r3, r3, #4128	; 0x1020
    2522:	3318      	adds	r3, #24
    2524:	681b      	ldr	r3, [r3, #0]
    2526:	f443 7200 	orr.w	r2, r3, #512	; 0x200
    252a:	f501 5381 	add.w	r3, r1, #4128	; 0x1020
    252e:	3318      	adds	r3, #24
    2530:	601a      	str	r2, [r3, #0]
D:\IntelligentVehicleProjects\K60_SmartCar_20160411\Debug/../05_Driver/pwm/pwm.c:208
				PORT_PCR_REG(PORTA_BASE_PTR, 12) = PORT_PCR_MUX(3);  // PTA12
    2532:	4b1d      	ldr	r3, [pc, #116]	; (25a8 <pwm_init+0x2bc>)
    2534:	f44f 7240 	mov.w	r2, #768	; 0x300
    2538:	631a      	str	r2, [r3, #48]	; 0x30
D:\IntelligentVehicleProjects\K60_SmartCar_20160411\Debug/../05_Driver/pwm/pwm.c:219
			}
			else
			{
				return 3;                     //
			}
			break;
    253a:	e012      	b.n	2562 <pwm_init+0x276>
D:\IntelligentVehicleProjects\K60_SmartCar_20160411\Debug/../05_Driver/pwm/pwm.c:230
				SIM_SCGC5 |= SIM_SCGC5_PORTA_MASK;
				PORT_PCR_REG(PORTA_BASE_PTR, 9) = PORT_PCR_MUX(3);  // PTA9
			}
			else if(FTM1_CH1 == (PORTA|13))
			{
				SIM_SCGC5 |= SIM_SCGC5_PORTA_MASK;
    253c:	4917      	ldr	r1, [pc, #92]	; (259c <pwm_init+0x2b0>)
    253e:	4b17      	ldr	r3, [pc, #92]	; (259c <pwm_init+0x2b0>)
    2540:	f503 5381 	add.w	r3, r3, #4128	; 0x1020
    2544:	3318      	adds	r3, #24
    2546:	681b      	ldr	r3, [r3, #0]
    2548:	f443 7200 	orr.w	r2, r3, #512	; 0x200
    254c:	f501 5381 	add.w	r3, r1, #4128	; 0x1020
    2550:	3318      	adds	r3, #24
    2552:	601a      	str	r2, [r3, #0]
D:\IntelligentVehicleProjects\K60_SmartCar_20160411\Debug/../05_Driver/pwm/pwm.c:231
				PORT_PCR_REG(PORTA_BASE_PTR, 13) = PORT_PCR_MUX(3);  // PTA13
    2554:	4b14      	ldr	r3, [pc, #80]	; (25a8 <pwm_init+0x2bc>)
    2556:	f44f 7240 	mov.w	r2, #768	; 0x300
    255a:	635a      	str	r2, [r3, #52]	; 0x34
D:\IntelligentVehicleProjects\K60_SmartCar_20160411\Debug/../05_Driver/pwm/pwm.c:242
			}
			else
			{
				return 3;                     //
			}
			break;
    255c:	e001      	b.n	2562 <pwm_init+0x276>
D:\IntelligentVehicleProjects\K60_SmartCar_20160411\Debug/../05_Driver/pwm/pwm.c:245

		default:
			return 3;
    255e:	2303      	movs	r3, #3
    2560:	e075      	b.n	264e <pwm_init+0x362>
D:\IntelligentVehicleProjects\K60_SmartCar_20160411\Debug/../05_Driver/pwm/pwm.c:247
		}
		break;
    2562:	e023      	b.n	25ac <pwm_init+0x2c0>
D:\IntelligentVehicleProjects\K60_SmartCar_20160411\Debug/../05_Driver/pwm/pwm.c:249
	case FTM2:
		SIM_SCGC3 |= SIM_SCGC3_FTM2_MASK;                           //FTM2
    2564:	490d      	ldr	r1, [pc, #52]	; (259c <pwm_init+0x2b0>)
    2566:	4b0d      	ldr	r3, [pc, #52]	; (259c <pwm_init+0x2b0>)
    2568:	f503 5381 	add.w	r3, r3, #4128	; 0x1020
    256c:	3310      	adds	r3, #16
    256e:	681b      	ldr	r3, [r3, #0]
    2570:	f043 7280 	orr.w	r2, r3, #16777216	; 0x1000000
    2574:	f501 5381 	add.w	r3, r1, #4128	; 0x1020
    2578:	3310      	adds	r3, #16
    257a:	601a      	str	r2, [r3, #0]
D:\IntelligentVehicleProjects\K60_SmartCar_20160411\Debug/../05_Driver/pwm/pwm.c:250
		switch(channel)
    257c:	79bb      	ldrb	r3, [r7, #6]
    257e:	2b00      	cmp	r3, #0
    2580:	d002      	beq.n	2588 <pwm_init+0x29c>
    2582:	2b01      	cmp	r3, #1
    2584:	d002      	beq.n	258c <pwm_init+0x2a0>
    2586:	e003      	b.n	2590 <pwm_init+0x2a4>
D:\IntelligentVehicleProjects\K60_SmartCar_20160411\Debug/../05_Driver/pwm/pwm.c:265
				SIM_SCGC5 |= SIM_SCGC5_PORTB_MASK;
				PORT_PCR_REG(PORTA_BASE_PTR, 18) = PORT_PCR_MUX(3);  // PTB18
			}
			else
			{
				return 3;                     //
    2588:	2303      	movs	r3, #3
    258a:	e060      	b.n	264e <pwm_init+0x362>
D:\IntelligentVehicleProjects\K60_SmartCar_20160411\Debug/../05_Driver/pwm/pwm.c:282
				SIM_SCGC5 |= SIM_SCGC5_PORTB_MASK;
				PORT_PCR_REG(PORTA_BASE_PTR, 19) = PORT_PCR_MUX(3);  // PTB19
			}
			else
			{
				return 3;                     //
    258c:	2303      	movs	r3, #3
    258e:	e05e      	b.n	264e <pwm_init+0x362>
D:\IntelligentVehicleProjects\K60_SmartCar_20160411\Debug/../05_Driver/pwm/pwm.c:287
			}
			break;

		default:
			return 3;
    2590:	2303      	movs	r3, #3
    2592:	e05c      	b.n	264e <pwm_init+0x362>
    2594:	017d7840 	.word	0x017d7840
    2598:	68db8bad 	.word	0x68db8bad
    259c:	40047000 	.word	0x40047000
    25a0:	4004b000 	.word	0x4004b000
    25a4:	4004c000 	.word	0x4004c000
    25a8:	40049000 	.word	0x40049000
D:\IntelligentVehicleProjects\K60_SmartCar_20160411\Debug/../05_Driver/pwm/pwm.c:295
	default:
		break;
	}
	/********************  PWM *******************/
	// 
	FTM_CnSC_REG(FTMx[ftmModule], channel) &= ~FTM_CnSC_ELSA_MASK;
    25ac:	79fa      	ldrb	r2, [r7, #7]
    25ae:	4b2b      	ldr	r3, [pc, #172]	; (265c <pwm_init+0x370>)
    25b0:	f853 1022 	ldr.w	r1, [r3, r2, lsl #2]
    25b4:	79b8      	ldrb	r0, [r7, #6]
    25b6:	79fa      	ldrb	r2, [r7, #7]
    25b8:	4b28      	ldr	r3, [pc, #160]	; (265c <pwm_init+0x370>)
    25ba:	f853 2022 	ldr.w	r2, [r3, r2, lsl #2]
    25be:	79bb      	ldrb	r3, [r7, #6]
    25c0:	3301      	adds	r3, #1
    25c2:	00db      	lsls	r3, r3, #3
    25c4:	4413      	add	r3, r2
    25c6:	685b      	ldr	r3, [r3, #4]
    25c8:	f023 0204 	bic.w	r2, r3, #4
    25cc:	1c43      	adds	r3, r0, #1
    25ce:	00db      	lsls	r3, r3, #3
    25d0:	440b      	add	r3, r1
    25d2:	605a      	str	r2, [r3, #4]
D:\IntelligentVehicleProjects\K60_SmartCar_20160411\Debug/../05_Driver/pwm/pwm.c:296
	FTM_CnSC_REG(FTMx[ftmModule], channel) = FTM_CnSC_MSB_MASK | FTM_CnSC_ELSB_MASK;
    25d4:	79fa      	ldrb	r2, [r7, #7]
    25d6:	4b21      	ldr	r3, [pc, #132]	; (265c <pwm_init+0x370>)
    25d8:	f853 2022 	ldr.w	r2, [r3, r2, lsl #2]
    25dc:	79bb      	ldrb	r3, [r7, #6]
    25de:	3301      	adds	r3, #1
    25e0:	00db      	lsls	r3, r3, #3
    25e2:	4413      	add	r3, r2
    25e4:	2228      	movs	r2, #40	; 0x28
    25e6:	605a      	str	r2, [r3, #4]
D:\IntelligentVehicleProjects\K60_SmartCar_20160411\Debug/../05_Driver/pwm/pwm.c:304
	// ELSnB:ELSnA = 11   Low-true pulses   (set Output on match)
	// Edge-aligned PWM  PWM   k16 reference manual.pdf  P944    K60P144M100SF2RM.pdfP1001


	/********************  ********************/
	FTM_SC_REG(FTMx[ftmModule])    = FTM_SC_CPWMS_MASK | FTM_SC_PS(sc_ps) | FTM_SC_CLKS(1);  //
    25e8:	79fa      	ldrb	r2, [r7, #7]
    25ea:	4b1c      	ldr	r3, [pc, #112]	; (265c <pwm_init+0x370>)
    25ec:	f853 3022 	ldr.w	r3, [r3, r2, lsl #2]
    25f0:	7dfa      	ldrb	r2, [r7, #23]
    25f2:	f002 0207 	and.w	r2, r2, #7
    25f6:	f042 0228 	orr.w	r2, r2, #40	; 0x28
    25fa:	601a      	str	r2, [r3, #0]
D:\IntelligentVehicleProjects\K60_SmartCar_20160411\Debug/../05_Driver/pwm/pwm.c:305
	FTM_CNTIN_REG(FTMx[ftmModule]) = 0;                                                      // Channel (n) Value  (CnV - CNTIN).
    25fc:	79fa      	ldrb	r2, [r7, #7]
    25fe:	4b17      	ldr	r3, [pc, #92]	; (265c <pwm_init+0x370>)
    2600:	f853 3022 	ldr.w	r3, [r3, r2, lsl #2]
    2604:	2200      	movs	r2, #0
    2606:	64da      	str	r2, [r3, #76]	; 0x4c
D:\IntelligentVehicleProjects\K60_SmartCar_20160411\Debug/../05_Driver/pwm/pwm.c:306
	FTM_MOD_REG(FTMx[ftmModule])   = mod;                                                    //Modulo value, EPWM MOD - CNTIN + 0x0001
    2608:	79fa      	ldrb	r2, [r7, #7]
    260a:	4b14      	ldr	r3, [pc, #80]	; (265c <pwm_init+0x370>)
    260c:	f853 3022 	ldr.w	r3, [r3, r2, lsl #2]
    2610:	89fa      	ldrh	r2, [r7, #14]
    2612:	609a      	str	r2, [r3, #8]
D:\IntelligentVehicleProjects\K60_SmartCar_20160411\Debug/../05_Driver/pwm/pwm.c:307
	FTM_CNTIN_REG(FTMx[ftmModule]) = 0;                                                      //Counter Initial Value 
    2614:	79fa      	ldrb	r2, [r7, #7]
    2616:	4b11      	ldr	r3, [pc, #68]	; (265c <pwm_init+0x370>)
    2618:	f853 3022 	ldr.w	r3, [r3, r2, lsl #2]
    261c:	2200      	movs	r2, #0
    261e:	64da      	str	r2, [r3, #76]	; 0x4c
D:\IntelligentVehicleProjects\K60_SmartCar_20160411\Debug/../05_Driver/pwm/pwm.c:308
	FTM_CnV_REG(FTMx[ftmModule], channel) = cv;
    2620:	79fa      	ldrb	r2, [r7, #7]
    2622:	4b0e      	ldr	r3, [pc, #56]	; (265c <pwm_init+0x370>)
    2624:	f853 1022 	ldr.w	r1, [r3, r2, lsl #2]
    2628:	79bb      	ldrb	r3, [r7, #6]
    262a:	89ba      	ldrh	r2, [r7, #12]
    262c:	3301      	adds	r3, #1
    262e:	00db      	lsls	r3, r3, #3
    2630:	440b      	add	r3, r1
    2632:	609a      	str	r2, [r3, #8]
D:\IntelligentVehicleProjects\K60_SmartCar_20160411\Debug/../05_Driver/pwm/pwm.c:309
	FTM_CNT_REG(FTMx[ftmModule])   = 0;                                                      //16
    2634:	79fa      	ldrb	r2, [r7, #7]
    2636:	4b09      	ldr	r3, [pc, #36]	; (265c <pwm_init+0x370>)
    2638:	f853 3022 	ldr.w	r3, [r3, r2, lsl #2]
    263c:	2200      	movs	r2, #0
    263e:	605a      	str	r2, [r3, #4]
D:\IntelligentVehicleProjects\K60_SmartCar_20160411\Debug/../05_Driver/pwm/pwm.c:310
	FTM_OUTINIT_REG(FTMx[ftmModule])=0;
    2640:	79fa      	ldrb	r2, [r7, #7]
    2642:	4b06      	ldr	r3, [pc, #24]	; (265c <pwm_init+0x370>)
    2644:	f853 3022 	ldr.w	r3, [r3, r2, lsl #2]
    2648:	2200      	movs	r2, #0
    264a:	65da      	str	r2, [r3, #92]	; 0x5c
D:\IntelligentVehicleProjects\K60_SmartCar_20160411\Debug/../05_Driver/pwm/pwm.c:311
	return 0;
    264c:	2300      	movs	r3, #0
D:\IntelligentVehicleProjects\K60_SmartCar_20160411\Debug/../05_Driver/pwm/pwm.c:312
}
    264e:	4618      	mov	r0, r3
    2650:	371c      	adds	r7, #28
    2652:	46bd      	mov	sp, r7
    2654:	f85d 7b04 	ldr.w	r7, [sp], #4
    2658:	4770      	bx	lr
    265a:	bf00      	nop
    265c:	1fff0018 	.word	0x1fff0018

00002660 <pit_init>:
pit_init():
D:\IntelligentVehicleProjects\K60_SmartCar_20160411\Debug/../05_Driver/pit/pit.c:18
//: pitno:pit  
//			timeout:          
//:         
//==========================================================================
void pit_init(uint8_t pitno,uint32_t timeout)
{
    2660:	b480      	push	{r7}
    2662:	b083      	sub	sp, #12
    2664:	af00      	add	r7, sp, #0
    2666:	4603      	mov	r3, r0
    2668:	6039      	str	r1, [r7, #0]
    266a:	71fb      	strb	r3, [r7, #7]
D:\IntelligentVehicleProjects\K60_SmartCar_20160411\Debug/../05_Driver/pit/pit.c:19
	SIM_SCGC6|=SIM_SCGC6_PIT_MASK;              //PIT
    266c:	4921      	ldr	r1, [pc, #132]	; (26f4 <pit_init+0x94>)
    266e:	4b21      	ldr	r3, [pc, #132]	; (26f4 <pit_init+0x94>)
    2670:	f503 5381 	add.w	r3, r3, #4128	; 0x1020
    2674:	331c      	adds	r3, #28
    2676:	681b      	ldr	r3, [r3, #0]
    2678:	f443 0200 	orr.w	r2, r3, #8388608	; 0x800000
    267c:	f501 5381 	add.w	r3, r1, #4128	; 0x1020
    2680:	331c      	adds	r3, #28
    2682:	601a      	str	r2, [r3, #0]
D:\IntelligentVehicleProjects\K60_SmartCar_20160411\Debug/../05_Driver/pit/pit.c:20
	PIT_MCR&=~(PIT_MCR_MDIS_MASK);              //
    2684:	4b1c      	ldr	r3, [pc, #112]	; (26f8 <pit_init+0x98>)
    2686:	4a1c      	ldr	r2, [pc, #112]	; (26f8 <pit_init+0x98>)
    2688:	6812      	ldr	r2, [r2, #0]
    268a:	f022 0202 	bic.w	r2, r2, #2
    268e:	601a      	str	r2, [r3, #0]
D:\IntelligentVehicleProjects\K60_SmartCar_20160411\Debug/../05_Driver/pit/pit.c:21
	PIT_MCR|=PIT_MCR_FRZ_MASK;                  //PIT
    2690:	4b19      	ldr	r3, [pc, #100]	; (26f8 <pit_init+0x98>)
    2692:	4a19      	ldr	r2, [pc, #100]	; (26f8 <pit_init+0x98>)
    2694:	6812      	ldr	r2, [r2, #0]
    2696:	f042 0201 	orr.w	r2, r2, #1
    269a:	601a      	str	r2, [r3, #0]
D:\IntelligentVehicleProjects\K60_SmartCar_20160411\Debug/../05_Driver/pit/pit.c:22
	PIT_LDVAL(pitno)=timeout;                   //
    269c:	4a16      	ldr	r2, [pc, #88]	; (26f8 <pit_init+0x98>)
    269e:	79fb      	ldrb	r3, [r7, #7]
    26a0:	3310      	adds	r3, #16
    26a2:	011b      	lsls	r3, r3, #4
    26a4:	4413      	add	r3, r2
    26a6:	683a      	ldr	r2, [r7, #0]
    26a8:	601a      	str	r2, [r3, #0]
D:\IntelligentVehicleProjects\K60_SmartCar_20160411\Debug/../05_Driver/pit/pit.c:23
	PIT_TCTRL(pitno)|=PIT_TCTRL_TEN_MASK;       //pit
    26aa:	4913      	ldr	r1, [pc, #76]	; (26f8 <pit_init+0x98>)
    26ac:	79fb      	ldrb	r3, [r7, #7]
    26ae:	4812      	ldr	r0, [pc, #72]	; (26f8 <pit_init+0x98>)
    26b0:	79fa      	ldrb	r2, [r7, #7]
    26b2:	0112      	lsls	r2, r2, #4
    26b4:	4402      	add	r2, r0
    26b6:	f502 7284 	add.w	r2, r2, #264	; 0x108
    26ba:	6812      	ldr	r2, [r2, #0]
    26bc:	f042 0201 	orr.w	r2, r2, #1
    26c0:	011b      	lsls	r3, r3, #4
    26c2:	440b      	add	r3, r1
    26c4:	f503 7384 	add.w	r3, r3, #264	; 0x108
    26c8:	601a      	str	r2, [r3, #0]
D:\IntelligentVehicleProjects\K60_SmartCar_20160411\Debug/../05_Driver/pit/pit.c:24
	PIT_TCTRL(pitno)&=~(PIT_TCTRL_TIE_MASK);    //pit
    26ca:	490b      	ldr	r1, [pc, #44]	; (26f8 <pit_init+0x98>)
    26cc:	79fb      	ldrb	r3, [r7, #7]
    26ce:	480a      	ldr	r0, [pc, #40]	; (26f8 <pit_init+0x98>)
    26d0:	79fa      	ldrb	r2, [r7, #7]
    26d2:	0112      	lsls	r2, r2, #4
    26d4:	4402      	add	r2, r0
    26d6:	f502 7284 	add.w	r2, r2, #264	; 0x108
    26da:	6812      	ldr	r2, [r2, #0]
    26dc:	f022 0202 	bic.w	r2, r2, #2
    26e0:	011b      	lsls	r3, r3, #4
    26e2:	440b      	add	r3, r1
    26e4:	f503 7384 	add.w	r3, r3, #264	; 0x108
    26e8:	601a      	str	r2, [r3, #0]
D:\IntelligentVehicleProjects\K60_SmartCar_20160411\Debug/../05_Driver/pit/pit.c:25
}
    26ea:	370c      	adds	r7, #12
    26ec:	46bd      	mov	sp, r7
    26ee:	f85d 7b04 	ldr.w	r7, [sp], #4
    26f2:	4770      	bx	lr
    26f4:	40047000 	.word	0x40047000
    26f8:	40037000 	.word	0x40037000

000026fc <enable_pit_int>:
enable_pit_int():
D:\IntelligentVehicleProjects\K60_SmartCar_20160411\Debug/../05_Driver/pit/pit.c:34
//:                                               
//: pitno: pit      
//: PIT                                                                                                     
//==========================================================================
void enable_pit_int(uint8_t pitno)
{
    26fc:	b580      	push	{r7, lr}
    26fe:	b082      	sub	sp, #8
    2700:	af00      	add	r7, sp, #0
    2702:	4603      	mov	r3, r0
    2704:	71fb      	strb	r3, [r7, #7]
D:\IntelligentVehicleProjects\K60_SmartCar_20160411\Debug/../05_Driver/pit/pit.c:35
	PIT_TCTRL(pitno)|=(PIT_TCTRL_TIE_MASK); //pit
    2706:	4919      	ldr	r1, [pc, #100]	; (276c <enable_pit_int+0x70>)
    2708:	79fb      	ldrb	r3, [r7, #7]
    270a:	4818      	ldr	r0, [pc, #96]	; (276c <enable_pit_int+0x70>)
    270c:	79fa      	ldrb	r2, [r7, #7]
    270e:	0112      	lsls	r2, r2, #4
    2710:	4402      	add	r2, r0
    2712:	f502 7284 	add.w	r2, r2, #264	; 0x108
    2716:	6812      	ldr	r2, [r2, #0]
    2718:	f042 0202 	orr.w	r2, r2, #2
    271c:	011b      	lsls	r3, r3, #4
    271e:	440b      	add	r3, r1
    2720:	f503 7384 	add.w	r3, r3, #264	; 0x108
    2724:	601a      	str	r2, [r3, #0]
D:\IntelligentVehicleProjects\K60_SmartCar_20160411\Debug/../05_Driver/pit/pit.c:36
	switch(pitno)
    2726:	79fb      	ldrb	r3, [r7, #7]
    2728:	2b03      	cmp	r3, #3
    272a:	d81b      	bhi.n	2764 <enable_pit_int+0x68>
    272c:	a201      	add	r2, pc, #4	; (adr r2, 2734 <enable_pit_int+0x38>)
    272e:	f852 f023 	ldr.w	pc, [r2, r3, lsl #2]
    2732:	bf00      	nop
    2734:	00002745 	.word	0x00002745
    2738:	0000274d 	.word	0x0000274d
    273c:	00002755 	.word	0x00002755
    2740:	0000275d 	.word	0x0000275d
D:\IntelligentVehicleProjects\K60_SmartCar_20160411\Debug/../05_Driver/pit/pit.c:39
	{
		case 0:
			enable_irq(68);			      //IRQ
    2744:	2044      	movs	r0, #68	; 0x44
    2746:	f000 fd25 	bl	3194 <enable_irq>
D:\IntelligentVehicleProjects\K60_SmartCar_20160411\Debug/../05_Driver/pit/pit.c:40
		break;
    274a:	e00b      	b.n	2764 <enable_pit_int+0x68>
D:\IntelligentVehicleProjects\K60_SmartCar_20160411\Debug/../05_Driver/pit/pit.c:42
		case 1:
			enable_irq(69);			      //IRQ
    274c:	2045      	movs	r0, #69	; 0x45
    274e:	f000 fd21 	bl	3194 <enable_irq>
D:\IntelligentVehicleProjects\K60_SmartCar_20160411\Debug/../05_Driver/pit/pit.c:43
		break;
    2752:	e007      	b.n	2764 <enable_pit_int+0x68>
D:\IntelligentVehicleProjects\K60_SmartCar_20160411\Debug/../05_Driver/pit/pit.c:45
		case 2:
			enable_irq(70);			      //IRQ
    2754:	2046      	movs	r0, #70	; 0x46
    2756:	f000 fd1d 	bl	3194 <enable_irq>
D:\IntelligentVehicleProjects\K60_SmartCar_20160411\Debug/../05_Driver/pit/pit.c:46
		break;
    275a:	e003      	b.n	2764 <enable_pit_int+0x68>
D:\IntelligentVehicleProjects\K60_SmartCar_20160411\Debug/../05_Driver/pit/pit.c:48
		case 3:
			enable_irq(71);			      //IRQ
    275c:	2047      	movs	r0, #71	; 0x47
    275e:	f000 fd19 	bl	3194 <enable_irq>
D:\IntelligentVehicleProjects\K60_SmartCar_20160411\Debug/../05_Driver/pit/pit.c:49
		break;
    2762:	bf00      	nop
D:\IntelligentVehicleProjects\K60_SmartCar_20160411\Debug/../05_Driver/pit/pit.c:51
	}
}
    2764:	3708      	adds	r7, #8
    2766:	46bd      	mov	sp, r7
    2768:	bd80      	pop	{r7, pc}
    276a:	bf00      	nop
    276c:	40037000 	.word	0x40037000

00002770 <gpio_port_pin_resolution>:
gpio_port_pin_resolution():
D:\IntelligentVehicleProjects\K60_SmartCar_20160411\Debug/../05_Driver/gpio/gpio.c:25
//	      pin:0~31
//port_pinPORTD|(3)
//        PORTD3portpin
//===========================================================================
static void gpio_port_pin_resolution(uint16_t port_pin,uint8_t* port,uint8_t* pin)
{
    2770:	b480      	push	{r7}
    2772:	b085      	sub	sp, #20
    2774:	af00      	add	r7, sp, #0
    2776:	4603      	mov	r3, r0
    2778:	60b9      	str	r1, [r7, #8]
    277a:	607a      	str	r2, [r7, #4]
    277c:	81fb      	strh	r3, [r7, #14]
D:\IntelligentVehicleProjects\K60_SmartCar_20160411\Debug/../05_Driver/gpio/gpio.c:26
    *port = port_pin>>8;
    277e:	89fb      	ldrh	r3, [r7, #14]
    2780:	0a1b      	lsrs	r3, r3, #8
    2782:	b29b      	uxth	r3, r3
    2784:	b2da      	uxtb	r2, r3
    2786:	68bb      	ldr	r3, [r7, #8]
    2788:	701a      	strb	r2, [r3, #0]
D:\IntelligentVehicleProjects\K60_SmartCar_20160411\Debug/../05_Driver/gpio/gpio.c:27
    * pin = port_pin;
    278a:	89fb      	ldrh	r3, [r7, #14]
    278c:	b2da      	uxtb	r2, r3
    278e:	687b      	ldr	r3, [r7, #4]
    2790:	701a      	strb	r2, [r3, #0]
D:\IntelligentVehicleProjects\K60_SmartCar_20160411\Debug/../05_Driver/gpio/gpio.c:28
}
    2792:	3714      	adds	r7, #20
    2794:	46bd      	mov	sp, r7
    2796:	f85d 7b04 	ldr.w	r7, [sp], #4
    279a:	4770      	bx	lr

0000279c <gpio_init>:
gpio_init():
D:\IntelligentVehicleProjects\K60_SmartCar_20160411\Debug/../05_Driver/gpio/gpio.c:45
//        state0=1=
//GPIO
//        
//===========================================================================
void gpio_init(uint16_t port_pin, uint8_t dir, uint8_t state)
{
    279c:	b580      	push	{r7, lr}
    279e:	b086      	sub	sp, #24
    27a0:	af00      	add	r7, sp, #0
    27a2:	4613      	mov	r3, r2
    27a4:	4602      	mov	r2, r0
    27a6:	80fa      	strh	r2, [r7, #6]
    27a8:	460a      	mov	r2, r1
    27aa:	717a      	strb	r2, [r7, #5]
    27ac:	713b      	strb	r3, [r7, #4]
D:\IntelligentVehicleProjects\K60_SmartCar_20160411\Debug/../05_Driver/gpio/gpio.c:52
    PORT_MemMapPtr port_ptr;    //port_ptrPORT
    GPIO_MemMapPtr gpio_ptr;    //port_ptrGPIO
    uint8_t port;                //
    uint8_t pin;                 //
    //portpin
    gpio_port_pin_resolution(port_pin , &port ,	 &pin);
    27ae:	88f9      	ldrh	r1, [r7, #6]
    27b0:	f107 020f 	add.w	r2, r7, #15
    27b4:	f107 030e 	add.w	r3, r7, #14
    27b8:	4608      	mov	r0, r1
    27ba:	4611      	mov	r1, r2
    27bc:	461a      	mov	r2, r3
    27be:	f7ff ffd7 	bl	2770 <gpio_port_pin_resolution>
D:\IntelligentVehicleProjects\K60_SmartCar_20160411\Debug/../05_Driver/gpio/gpio.c:55

    //portport_ptrgpio_ptr()
    port_ptr = PORT_ARR[port];  //PORT
    27c2:	7bfb      	ldrb	r3, [r7, #15]
    27c4:	461a      	mov	r2, r3
    27c6:	4b21      	ldr	r3, [pc, #132]	; (284c <gpio_init+0xb0>)
    27c8:	f853 3022 	ldr.w	r3, [r3, r2, lsl #2]
    27cc:	617b      	str	r3, [r7, #20]
D:\IntelligentVehicleProjects\K60_SmartCar_20160411\Debug/../05_Driver/gpio/gpio.c:56
    gpio_ptr = GPIO_ARR[port];  //GPIO
    27ce:	7bfb      	ldrb	r3, [r7, #15]
    27d0:	461a      	mov	r2, r3
    27d2:	4b1f      	ldr	r3, [pc, #124]	; (2850 <gpio_init+0xb4>)
    27d4:	f853 3022 	ldr.w	r3, [r3, r2, lsl #2]
    27d8:	613b      	str	r3, [r7, #16]
D:\IntelligentVehicleProjects\K60_SmartCar_20160411\Debug/../05_Driver/gpio/gpio.c:59

    //pin,GPIO(MUX=0b001)
    port_ptr->PCR[pin] &= ~PORT_PCR_MUX_MASK;   //MUX=0b000
    27da:	7bbb      	ldrb	r3, [r7, #14]
    27dc:	461a      	mov	r2, r3
    27de:	7bbb      	ldrb	r3, [r7, #14]
    27e0:	4619      	mov	r1, r3
    27e2:	697b      	ldr	r3, [r7, #20]
    27e4:	f853 3021 	ldr.w	r3, [r3, r1, lsl #2]
    27e8:	f423 61e0 	bic.w	r1, r3, #1792	; 0x700
    27ec:	697b      	ldr	r3, [r7, #20]
    27ee:	f843 1022 	str.w	r1, [r3, r2, lsl #2]
D:\IntelligentVehicleProjects\K60_SmartCar_20160411\Debug/../05_Driver/gpio/gpio.c:60
    port_ptr->PCR[pin] |= PORT_PCR_MUX(1);      //MUX=0b001
    27f2:	7bbb      	ldrb	r3, [r7, #14]
    27f4:	461a      	mov	r2, r3
    27f6:	7bbb      	ldrb	r3, [r7, #14]
    27f8:	4619      	mov	r1, r3
    27fa:	697b      	ldr	r3, [r7, #20]
    27fc:	f853 3021 	ldr.w	r3, [r3, r1, lsl #2]
    2800:	f443 7180 	orr.w	r1, r3, #256	; 0x100
    2804:	697b      	ldr	r3, [r7, #20]
    2806:	f843 1022 	str.w	r1, [r3, r2, lsl #2]
D:\IntelligentVehicleProjects\K60_SmartCar_20160411\Debug/../05_Driver/gpio/gpio.c:63
    
    //dir
    if (1 == dir)   //
    280a:	797b      	ldrb	r3, [r7, #5]
    280c:	2b01      	cmp	r3, #1
    280e:	d10f      	bne.n	2830 <gpio_init+0x94>
D:\IntelligentVehicleProjects\K60_SmartCar_20160411\Debug/../05_Driver/gpio/gpio.c:65
       {
         BSET(pin,gpio_ptr->PDDR);   //pin=1
    2810:	693b      	ldr	r3, [r7, #16]
    2812:	695a      	ldr	r2, [r3, #20]
    2814:	7bbb      	ldrb	r3, [r7, #14]
    2816:	2101      	movs	r1, #1
    2818:	fa01 f303 	lsl.w	r3, r1, r3
    281c:	431a      	orrs	r2, r3
    281e:	693b      	ldr	r3, [r7, #16]
    2820:	615a      	str	r2, [r3, #20]
D:\IntelligentVehicleProjects\K60_SmartCar_20160411\Debug/../05_Driver/gpio/gpio.c:66
         gpio_set(port_pin, state);  //gpio_set
    2822:	88fa      	ldrh	r2, [r7, #6]
    2824:	793b      	ldrb	r3, [r7, #4]
    2826:	4610      	mov	r0, r2
    2828:	4619      	mov	r1, r3
    282a:	f000 f813 	bl	2854 <gpio_set>
    282e:	e009      	b.n	2844 <gpio_init+0xa8>
D:\IntelligentVehicleProjects\K60_SmartCar_20160411\Debug/../05_Driver/gpio/gpio.c:69
       }
       else         //
       BCLR(pin,gpio_ptr->PDDR);    //pin=0
    2830:	693b      	ldr	r3, [r7, #16]
    2832:	695a      	ldr	r2, [r3, #20]
    2834:	7bbb      	ldrb	r3, [r7, #14]
    2836:	2101      	movs	r1, #1
    2838:	fa01 f303 	lsl.w	r3, r1, r3
    283c:	43db      	mvns	r3, r3
    283e:	401a      	ands	r2, r3
    2840:	693b      	ldr	r3, [r7, #16]
    2842:	615a      	str	r2, [r3, #20]
D:\IntelligentVehicleProjects\K60_SmartCar_20160411\Debug/../05_Driver/gpio/gpio.c:70
}
    2844:	3718      	adds	r7, #24
    2846:	46bd      	mov	sp, r7
    2848:	bd80      	pop	{r7, pc}
    284a:	bf00      	nop
    284c:	000039a0 	.word	0x000039a0
    2850:	000039b4 	.word	0x000039b4

00002854 <gpio_set>:
gpio_set():
D:\IntelligentVehicleProjects\K60_SmartCar_20160411\Debug/../05_Driver/gpio/gpio.c:81
//port_pin|PORTD|(3) D3
//		  state0=1=
//
//===========================================================================
void gpio_set(uint16_t port_pin, uint8_t state)
{
    2854:	b580      	push	{r7, lr}
    2856:	b084      	sub	sp, #16
    2858:	af00      	add	r7, sp, #0
    285a:	4602      	mov	r2, r0
    285c:	460b      	mov	r3, r1
    285e:	80fa      	strh	r2, [r7, #6]
    2860:	717b      	strb	r3, [r7, #5]
D:\IntelligentVehicleProjects\K60_SmartCar_20160411\Debug/../05_Driver/gpio/gpio.c:85
    GPIO_MemMapPtr gpio_ptr;    //port_ptrGPIO
    uint8_t port;
    uint8_t pin;
    gpio_port_pin_resolution(port_pin , &port , &pin);
    2862:	88f9      	ldrh	r1, [r7, #6]
    2864:	f107 020b 	add.w	r2, r7, #11
    2868:	f107 030a 	add.w	r3, r7, #10
    286c:	4608      	mov	r0, r1
    286e:	4611      	mov	r1, r2
    2870:	461a      	mov	r2, r3
    2872:	f7ff ff7d 	bl	2770 <gpio_port_pin_resolution>
D:\IntelligentVehicleProjects\K60_SmartCar_20160411\Debug/../05_Driver/gpio/gpio.c:88

    //portgpio_ptrGPIO
    gpio_ptr = GPIO_ARR[port];
    2876:	7afb      	ldrb	r3, [r7, #11]
    2878:	461a      	mov	r2, r3
    287a:	4b0f      	ldr	r3, [pc, #60]	; (28b8 <gpio_set+0x64>)
    287c:	f853 3022 	ldr.w	r3, [r3, r2, lsl #2]
    2880:	60fb      	str	r3, [r7, #12]
D:\IntelligentVehicleProjects\K60_SmartCar_20160411\Debug/../05_Driver/gpio/gpio.c:91

    //state10
    if (1==state)
    2882:	797b      	ldrb	r3, [r7, #5]
    2884:	2b01      	cmp	r3, #1
    2886:	d109      	bne.n	289c <gpio_set+0x48>
D:\IntelligentVehicleProjects\K60_SmartCar_20160411\Debug/../05_Driver/gpio/gpio.c:92
        {BSET(pin,gpio_ptr->PDOR);}
    2888:	68fb      	ldr	r3, [r7, #12]
    288a:	681a      	ldr	r2, [r3, #0]
    288c:	7abb      	ldrb	r3, [r7, #10]
    288e:	2101      	movs	r1, #1
    2890:	fa01 f303 	lsl.w	r3, r1, r3
    2894:	431a      	orrs	r2, r3
    2896:	68fb      	ldr	r3, [r7, #12]
    2898:	601a      	str	r2, [r3, #0]
    289a:	e009      	b.n	28b0 <gpio_set+0x5c>
D:\IntelligentVehicleProjects\K60_SmartCar_20160411\Debug/../05_Driver/gpio/gpio.c:94
    else
	{BCLR(pin,gpio_ptr->PDOR);}
    289c:	68fb      	ldr	r3, [r7, #12]
    289e:	681a      	ldr	r2, [r3, #0]
    28a0:	7abb      	ldrb	r3, [r7, #10]
    28a2:	2101      	movs	r1, #1
    28a4:	fa01 f303 	lsl.w	r3, r1, r3
    28a8:	43db      	mvns	r3, r3
    28aa:	401a      	ands	r2, r3
    28ac:	68fb      	ldr	r3, [r7, #12]
    28ae:	601a      	str	r2, [r3, #0]
D:\IntelligentVehicleProjects\K60_SmartCar_20160411\Debug/../05_Driver/gpio/gpio.c:95
}
    28b0:	3710      	adds	r7, #16
    28b2:	46bd      	mov	sp, r7
    28b4:	bd80      	pop	{r7, pc}
    28b6:	bf00      	nop
    28b8:	000039b4 	.word	0x000039b4

000028bc <gpio_reverse>:
gpio_reverse():
D:\IntelligentVehicleProjects\K60_SmartCar_20160411\Debug/../05_Driver/gpio/gpio.c:126
//
//port_pin|PORTD|(3) D3
//
//===========================================================================
void gpio_reverse(uint16_t port_pin)
{
    28bc:	b580      	push	{r7, lr}
    28be:	b084      	sub	sp, #16
    28c0:	af00      	add	r7, sp, #0
    28c2:	4603      	mov	r3, r0
    28c4:	80fb      	strh	r3, [r7, #6]
D:\IntelligentVehicleProjects\K60_SmartCar_20160411\Debug/../05_Driver/gpio/gpio.c:130
    GPIO_MemMapPtr gpio_ptr;    //port_ptrGPIO
    uint8_t port;
    uint8_t pin;
    gpio_port_pin_resolution(port_pin , &port , &pin);
    28c6:	88f9      	ldrh	r1, [r7, #6]
    28c8:	f107 020b 	add.w	r2, r7, #11
    28cc:	f107 030a 	add.w	r3, r7, #10
    28d0:	4608      	mov	r0, r1
    28d2:	4611      	mov	r1, r2
    28d4:	461a      	mov	r2, r3
    28d6:	f7ff ff4b 	bl	2770 <gpio_port_pin_resolution>
D:\IntelligentVehicleProjects\K60_SmartCar_20160411\Debug/../05_Driver/gpio/gpio.c:133

    //portport_ptrGPIO
    gpio_ptr = GPIO_ARR[port];
    28da:	7afb      	ldrb	r3, [r7, #11]
    28dc:	461a      	mov	r2, r3
    28de:	4b08      	ldr	r3, [pc, #32]	; (2900 <gpio_reverse+0x44>)
    28e0:	f853 3022 	ldr.w	r3, [r3, r2, lsl #2]
    28e4:	60fb      	str	r3, [r7, #12]
D:\IntelligentVehicleProjects\K60_SmartCar_20160411\Debug/../05_Driver/gpio/gpio.c:136

	//
    BSET(pin,gpio_ptr->PTOR);
    28e6:	68fb      	ldr	r3, [r7, #12]
    28e8:	68da      	ldr	r2, [r3, #12]
    28ea:	7abb      	ldrb	r3, [r7, #10]
    28ec:	2101      	movs	r1, #1
    28ee:	fa01 f303 	lsl.w	r3, r1, r3
    28f2:	431a      	orrs	r2, r3
    28f4:	68fb      	ldr	r3, [r7, #12]
    28f6:	60da      	str	r2, [r3, #12]
D:\IntelligentVehicleProjects\K60_SmartCar_20160411\Debug/../05_Driver/gpio/gpio.c:137
}
    28f8:	3710      	adds	r7, #16
    28fa:	46bd      	mov	sp, r7
    28fc:	bd80      	pop	{r7, pc}
    28fe:	bf00      	nop
    2900:	000039b4 	.word	0x000039b4

00002904 <adc_init>:
adc_init():
D:\IntelligentVehicleProjects\K60_SmartCar_20160411\Debug/../05_Driver/adc/adc.c:19
//0  1 
//MoudelNumber
//AD
//============================================================================
uint8_t adc_init(int MoudelNumber)
{
    2904:	b480      	push	{r7}
    2906:	b083      	sub	sp, #12
    2908:	af00      	add	r7, sp, #0
    290a:	6078      	str	r0, [r7, #4]
D:\IntelligentVehicleProjects\K60_SmartCar_20160411\Debug/../05_Driver/adc/adc.c:20
    if(MoudelNumber == 0)//0
    290c:	687b      	ldr	r3, [r7, #4]
    290e:	2b00      	cmp	r3, #0
    2910:	d10c      	bne.n	292c <adc_init+0x28>
D:\IntelligentVehicleProjects\K60_SmartCar_20160411\Debug/../05_Driver/adc/adc.c:23
    {
    	//ADC0
        SIM_SCGC6 |= (SIM_SCGC6_ADC0_MASK );
    2912:	4913      	ldr	r1, [pc, #76]	; (2960 <adc_init+0x5c>)
    2914:	4b12      	ldr	r3, [pc, #72]	; (2960 <adc_init+0x5c>)
    2916:	f503 5381 	add.w	r3, r3, #4128	; 0x1020
    291a:	331c      	adds	r3, #28
    291c:	681b      	ldr	r3, [r3, #0]
    291e:	f043 6200 	orr.w	r2, r3, #134217728	; 0x8000000
    2922:	f501 5381 	add.w	r3, r1, #4128	; 0x1020
    2926:	331c      	adds	r3, #28
    2928:	601a      	str	r2, [r3, #0]
    292a:	e011      	b.n	2950 <adc_init+0x4c>
D:\IntelligentVehicleProjects\K60_SmartCar_20160411\Debug/../05_Driver/adc/adc.c:25
    }
    else if(MoudelNumber == 1)//1
    292c:	687b      	ldr	r3, [r7, #4]
    292e:	2b01      	cmp	r3, #1
    2930:	d10c      	bne.n	294c <adc_init+0x48>
D:\IntelligentVehicleProjects\K60_SmartCar_20160411\Debug/../05_Driver/adc/adc.c:28
    {      
    	//ADC1
        SIM_SCGC3 |= (SIM_SCGC3_ADC1_MASK );
    2932:	490b      	ldr	r1, [pc, #44]	; (2960 <adc_init+0x5c>)
    2934:	4b0a      	ldr	r3, [pc, #40]	; (2960 <adc_init+0x5c>)
    2936:	f503 5381 	add.w	r3, r3, #4128	; 0x1020
    293a:	3310      	adds	r3, #16
    293c:	681b      	ldr	r3, [r3, #0]
    293e:	f043 6200 	orr.w	r2, r3, #134217728	; 0x8000000
    2942:	f501 5381 	add.w	r3, r1, #4128	; 0x1020
    2946:	3310      	adds	r3, #16
    2948:	601a      	str	r2, [r3, #0]
    294a:	e001      	b.n	2950 <adc_init+0x4c>
D:\IntelligentVehicleProjects\K60_SmartCar_20160411\Debug/../05_Driver/adc/adc.c:32
    }
    else
    {
        return 0;
    294c:	2300      	movs	r3, #0
    294e:	e000      	b.n	2952 <adc_init+0x4e>
D:\IntelligentVehicleProjects\K60_SmartCar_20160411\Debug/../05_Driver/adc/adc.c:35
    }
    
    return 1;
    2950:	2301      	movs	r3, #1
D:\IntelligentVehicleProjects\K60_SmartCar_20160411\Debug/../05_Driver/adc/adc.c:36
}
    2952:	4618      	mov	r0, r3
    2954:	370c      	adds	r7, #12
    2956:	46bd      	mov	sp, r7
    2958:	f85d 7b04 	ldr.w	r7, [sp], #4
    295c:	4770      	bx	lr
    295e:	bf00      	nop
    2960:	40047000 	.word	0x40047000

00002964 <adc_once>:
adc_once():
D:\IntelligentVehicleProjects\K60_SmartCar_20160411\Debug/../05_Driver/adc/adc.c:49
//               Channel
//              accuracy
//AD    
//============================================================================
uint16_t adc_once(int MoudelNumber,int Channel,uint8_t accuracy)//AD
{
    2964:	b480      	push	{r7}
    2966:	b089      	sub	sp, #36	; 0x24
    2968:	af00      	add	r7, sp, #0
    296a:	60f8      	str	r0, [r7, #12]
    296c:	60b9      	str	r1, [r7, #8]
    296e:	4613      	mov	r3, r2
    2970:	71fb      	strb	r3, [r7, #7]
D:\IntelligentVehicleProjects\K60_SmartCar_20160411\Debug/../05_Driver/adc/adc.c:50
		uint16_t result = 0;
    2972:	2300      	movs	r3, #0
    2974:	82fb      	strh	r3, [r7, #22]
D:\IntelligentVehicleProjects\K60_SmartCar_20160411\Debug/../05_Driver/adc/adc.c:51
		uint8_t ADCCfg1Mode = 0;
    2976:	2300      	movs	r3, #0
    2978:	77fb      	strb	r3, [r7, #31]
D:\IntelligentVehicleProjects\K60_SmartCar_20160411\Debug/../05_Driver/adc/adc.c:54
		ADC_MemMapPtr ADCMoudel;//ADC
				
		switch(accuracy)
    297a:	79fb      	ldrb	r3, [r7, #7]
    297c:	3b08      	subs	r3, #8
    297e:	2b08      	cmp	r3, #8
    2980:	d820      	bhi.n	29c4 <adc_once+0x60>
    2982:	a201      	add	r2, pc, #4	; (adr r2, 2988 <adc_once+0x24>)
    2984:	f852 f023 	ldr.w	pc, [r2, r3, lsl #2]
    2988:	000029ad 	.word	0x000029ad
    298c:	000029c5 	.word	0x000029c5
    2990:	000029b9 	.word	0x000029b9
    2994:	000029c5 	.word	0x000029c5
    2998:	000029b3 	.word	0x000029b3
    299c:	000029c5 	.word	0x000029c5
    29a0:	000029c5 	.word	0x000029c5
    29a4:	000029c5 	.word	0x000029c5
    29a8:	000029bf 	.word	0x000029bf
D:\IntelligentVehicleProjects\K60_SmartCar_20160411\Debug/../05_Driver/adc/adc.c:57
		{
			 case 8:
			   ADCCfg1Mode = 0x00;
    29ac:	2300      	movs	r3, #0
    29ae:	77fb      	strb	r3, [r7, #31]
D:\IntelligentVehicleProjects\K60_SmartCar_20160411\Debug/../05_Driver/adc/adc.c:58
			   break;
    29b0:	e00a      	b.n	29c8 <adc_once+0x64>
D:\IntelligentVehicleProjects\K60_SmartCar_20160411\Debug/../05_Driver/adc/adc.c:60
			 case 12:
			   ADCCfg1Mode = 0x01;
    29b2:	2301      	movs	r3, #1
    29b4:	77fb      	strb	r3, [r7, #31]
D:\IntelligentVehicleProjects\K60_SmartCar_20160411\Debug/../05_Driver/adc/adc.c:61
			   break;
    29b6:	e007      	b.n	29c8 <adc_once+0x64>
D:\IntelligentVehicleProjects\K60_SmartCar_20160411\Debug/../05_Driver/adc/adc.c:63
			 case 10:
			   ADCCfg1Mode = 0x02;
    29b8:	2302      	movs	r3, #2
    29ba:	77fb      	strb	r3, [r7, #31]
D:\IntelligentVehicleProjects\K60_SmartCar_20160411\Debug/../05_Driver/adc/adc.c:64
			   break;
    29bc:	e004      	b.n	29c8 <adc_once+0x64>
D:\IntelligentVehicleProjects\K60_SmartCar_20160411\Debug/../05_Driver/adc/adc.c:66
			 case 16:
			   ADCCfg1Mode = 0x03;
    29be:	2303      	movs	r3, #3
    29c0:	77fb      	strb	r3, [r7, #31]
D:\IntelligentVehicleProjects\K60_SmartCar_20160411\Debug/../05_Driver/adc/adc.c:67
			   break;
    29c2:	e001      	b.n	29c8 <adc_once+0x64>
D:\IntelligentVehicleProjects\K60_SmartCar_20160411\Debug/../05_Driver/adc/adc.c:69
			 default:
			   ADCCfg1Mode = 0x00;
    29c4:	2300      	movs	r3, #0
    29c6:	77fb      	strb	r3, [r7, #31]
D:\IntelligentVehicleProjects\K60_SmartCar_20160411\Debug/../05_Driver/adc/adc.c:73
		}
		
		
		if(MoudelNumber==0)//ADC0
    29c8:	68fb      	ldr	r3, [r7, #12]
    29ca:	2b00      	cmp	r3, #0
    29cc:	d102      	bne.n	29d4 <adc_once+0x70>
D:\IntelligentVehicleProjects\K60_SmartCar_20160411\Debug/../05_Driver/adc/adc.c:75
		{
		   ADCMoudel = ADC0_BASE_PTR;
    29ce:	4b17      	ldr	r3, [pc, #92]	; (2a2c <adc_once+0xc8>)
    29d0:	61bb      	str	r3, [r7, #24]
    29d2:	e001      	b.n	29d8 <adc_once+0x74>
D:\IntelligentVehicleProjects\K60_SmartCar_20160411\Debug/../05_Driver/adc/adc.c:79
		}
		else               //ADC1
		{
		   ADCMoudel = ADC1_BASE_PTR;
    29d4:	4b16      	ldr	r3, [pc, #88]	; (2a30 <adc_once+0xcc>)
    29d6:	61bb      	str	r3, [r7, #24]
D:\IntelligentVehicleProjects\K60_SmartCar_20160411\Debug/../05_Driver/adc/adc.c:86
		
		//4
		ADC_CFG1_REG(ADCMoudel) = ADLPC_NORMAL
								 | ADC_CFG1_ADIV(ADIV_4)
								 | ADLSMP_LONG
								 | ADC_CFG1_MODE(ADCCfg1Mode)
    29d8:	7ffb      	ldrb	r3, [r7, #31]
    29da:	009b      	lsls	r3, r3, #2
    29dc:	f003 030c 	and.w	r3, r3, #12
D:\IntelligentVehicleProjects\K60_SmartCar_20160411\Debug/../05_Driver/adc/adc.c:87
								 | ADC_CFG1_ADICLK(ADICLK_BUS);
    29e0:	f043 0250 	orr.w	r2, r3, #80	; 0x50
D:\IntelligentVehicleProjects\K60_SmartCar_20160411\Debug/../05_Driver/adc/adc.c:83
		{
		   ADCMoudel = ADC1_BASE_PTR;
		}
		
		//4
		ADC_CFG1_REG(ADCMoudel) = ADLPC_NORMAL
    29e4:	69bb      	ldr	r3, [r7, #24]
    29e6:	609a      	str	r2, [r3, #8]
D:\IntelligentVehicleProjects\K60_SmartCar_20160411\Debug/../05_Driver/adc/adc.c:90
								 | ADLSMP_LONG
								 | ADC_CFG1_MODE(ADCCfg1Mode)
								 | ADC_CFG1_ADICLK(ADICLK_BUS);
		   
		//ADxxat   
		ADC_CFG2_REG(ADCMoudel)  =    MUXSEL_ADCA
    29e8:	69bb      	ldr	r3, [r7, #24]
    29ea:	2204      	movs	r2, #4
    29ec:	60da      	str	r2, [r3, #12]
D:\IntelligentVehicleProjects\K60_SmartCar_20160411\Debug/../05_Driver/adc/adc.c:96
								 | ADACKEN_DISABLED
								 | ADHSC_HISPEED
								 | ADC_CFG2_ADLSTS(ADLSTS_20) ;
								
		//
		ADC_SC1_REG(ADCMoudel,A) = AIEN_ON | DIFF_SINGLE | ADC_SC1_ADCH(Channel);
    29ee:	68bb      	ldr	r3, [r7, #8]
    29f0:	f003 031f 	and.w	r3, r3, #31
    29f4:	f043 0240 	orr.w	r2, r3, #64	; 0x40
    29f8:	69bb      	ldr	r3, [r7, #24]
    29fa:	601a      	str	r2, [r3, #0]
D:\IntelligentVehicleProjects\K60_SmartCar_20160411\Debug/../05_Driver/adc/adc.c:98
	    //
    	while (( ADC_SC1_REG(ADCMoudel,A) & ADC_SC1_COCO_MASK ) != ADC_SC1_COCO_MASK)
    29fc:	bf00      	nop
D:\IntelligentVehicleProjects\K60_SmartCar_20160411\Debug/../05_Driver/adc/adc.c:98 (discriminator 1)
    29fe:	69bb      	ldr	r3, [r7, #24]
    2a00:	681b      	ldr	r3, [r3, #0]
    2a02:	f003 0380 	and.w	r3, r3, #128	; 0x80
    2a06:	2b00      	cmp	r3, #0
    2a08:	d0f9      	beq.n	29fe <adc_once+0x9a>
D:\IntelligentVehicleProjects\K60_SmartCar_20160411\Debug/../05_Driver/adc/adc.c:103
		{

		}
	    //
		result = ADC_R_REG(ADCMoudel,A);       
    2a0a:	69bb      	ldr	r3, [r7, #24]
    2a0c:	691b      	ldr	r3, [r3, #16]
    2a0e:	82fb      	strh	r3, [r7, #22]
D:\IntelligentVehicleProjects\K60_SmartCar_20160411\Debug/../05_Driver/adc/adc.c:105
		//ADC
		ADC_SC1_REG(ADCMoudel,A) &= ~ADC_SC1_COCO_MASK;
    2a10:	69bb      	ldr	r3, [r7, #24]
    2a12:	681b      	ldr	r3, [r3, #0]
    2a14:	f023 0280 	bic.w	r2, r3, #128	; 0x80
    2a18:	69bb      	ldr	r3, [r7, #24]
    2a1a:	601a      	str	r2, [r3, #0]
D:\IntelligentVehicleProjects\K60_SmartCar_20160411\Debug/../05_Driver/adc/adc.c:107

    return result;
    2a1c:	8afb      	ldrh	r3, [r7, #22]
D:\IntelligentVehicleProjects\K60_SmartCar_20160411\Debug/../05_Driver/adc/adc.c:108
}
    2a1e:	4618      	mov	r0, r3
    2a20:	3724      	adds	r7, #36	; 0x24
    2a22:	46bd      	mov	sp, r7
    2a24:	f85d 7b04 	ldr.w	r7, [sp], #4
    2a28:	4770      	bx	lr
    2a2a:	bf00      	nop
    2a2c:	4003b000 	.word	0x4003b000
    2a30:	400bb000 	.word	0x400bb000

00002a34 <adc_mid>:
adc_mid():
D:\IntelligentVehicleProjects\K60_SmartCar_20160411\Debug/../05_Driver/adc/adc.c:119
//               Channel
//              accuracy
//(:0-4095) 
//============================================================================
uint16_t adc_mid(int MoudelNumber,int Channel,uint8_t accuracy)
{
    2a34:	b580      	push	{r7, lr}
    2a36:	b086      	sub	sp, #24
    2a38:	af00      	add	r7, sp, #0
    2a3a:	60f8      	str	r0, [r7, #12]
    2a3c:	60b9      	str	r1, [r7, #8]
    2a3e:	4613      	mov	r3, r2
    2a40:	71fb      	strb	r3, [r7, #7]
D:\IntelligentVehicleProjects\K60_SmartCar_20160411\Debug/../05_Driver/adc/adc.c:122
	uint16_t i,j,k,tmp;
	//1.3A/D
	i = adc_once(MoudelNumber,Channel,accuracy);
    2a42:	79fb      	ldrb	r3, [r7, #7]
    2a44:	68f8      	ldr	r0, [r7, #12]
    2a46:	68b9      	ldr	r1, [r7, #8]
    2a48:	461a      	mov	r2, r3
    2a4a:	f7ff ff8b 	bl	2964 <adc_once>
    2a4e:	4603      	mov	r3, r0
    2a50:	82fb      	strh	r3, [r7, #22]
D:\IntelligentVehicleProjects\K60_SmartCar_20160411\Debug/../05_Driver/adc/adc.c:123
	j = adc_once(MoudelNumber,Channel,accuracy);
    2a52:	79fb      	ldrb	r3, [r7, #7]
    2a54:	68f8      	ldr	r0, [r7, #12]
    2a56:	68b9      	ldr	r1, [r7, #8]
    2a58:	461a      	mov	r2, r3
    2a5a:	f7ff ff83 	bl	2964 <adc_once>
    2a5e:	4603      	mov	r3, r0
    2a60:	82bb      	strh	r3, [r7, #20]
D:\IntelligentVehicleProjects\K60_SmartCar_20160411\Debug/../05_Driver/adc/adc.c:124
	k = adc_once(MoudelNumber,Channel,accuracy);
    2a62:	79fb      	ldrb	r3, [r7, #7]
    2a64:	68f8      	ldr	r0, [r7, #12]
    2a66:	68b9      	ldr	r1, [r7, #8]
    2a68:	461a      	mov	r2, r3
    2a6a:	f7ff ff7b 	bl	2964 <adc_once>
    2a6e:	4603      	mov	r3, r0
    2a70:	823b      	strh	r3, [r7, #16]
D:\IntelligentVehicleProjects\K60_SmartCar_20160411\Debug/../05_Driver/adc/adc.c:126
	//2.
	if (i > j)
    2a72:	8afa      	ldrh	r2, [r7, #22]
    2a74:	8abb      	ldrh	r3, [r7, #20]
    2a76:	429a      	cmp	r2, r3
    2a78:	d905      	bls.n	2a86 <adc_mid+0x52>
D:\IntelligentVehicleProjects\K60_SmartCar_20160411\Debug/../05_Driver/adc/adc.c:128
	{
		tmp = i; i = j; j = tmp;
    2a7a:	8afb      	ldrh	r3, [r7, #22]
    2a7c:	827b      	strh	r3, [r7, #18]
    2a7e:	8abb      	ldrh	r3, [r7, #20]
    2a80:	82fb      	strh	r3, [r7, #22]
    2a82:	8a7b      	ldrh	r3, [r7, #18]
    2a84:	82bb      	strh	r3, [r7, #20]
D:\IntelligentVehicleProjects\K60_SmartCar_20160411\Debug/../05_Driver/adc/adc.c:130
	}
	if (k > j) 
    2a86:	8a3a      	ldrh	r2, [r7, #16]
    2a88:	8abb      	ldrh	r3, [r7, #20]
    2a8a:	429a      	cmp	r2, r3
    2a8c:	d902      	bls.n	2a94 <adc_mid+0x60>
D:\IntelligentVehicleProjects\K60_SmartCar_20160411\Debug/../05_Driver/adc/adc.c:131
	  tmp = j;
    2a8e:	8abb      	ldrh	r3, [r7, #20]
    2a90:	827b      	strh	r3, [r7, #18]
    2a92:	e008      	b.n	2aa6 <adc_mid+0x72>
D:\IntelligentVehicleProjects\K60_SmartCar_20160411\Debug/../05_Driver/adc/adc.c:132
	else if(k > i) 
    2a94:	8a3a      	ldrh	r2, [r7, #16]
    2a96:	8afb      	ldrh	r3, [r7, #22]
    2a98:	429a      	cmp	r2, r3
    2a9a:	d902      	bls.n	2aa2 <adc_mid+0x6e>
D:\IntelligentVehicleProjects\K60_SmartCar_20160411\Debug/../05_Driver/adc/adc.c:133
	  tmp = k;
    2a9c:	8a3b      	ldrh	r3, [r7, #16]
    2a9e:	827b      	strh	r3, [r7, #18]
    2aa0:	e001      	b.n	2aa6 <adc_mid+0x72>
D:\IntelligentVehicleProjects\K60_SmartCar_20160411\Debug/../05_Driver/adc/adc.c:135
    else 
      tmp = i;
    2aa2:	8afb      	ldrh	r3, [r7, #22]
    2aa4:	827b      	strh	r3, [r7, #18]
D:\IntelligentVehicleProjects\K60_SmartCar_20160411\Debug/../05_Driver/adc/adc.c:136
	return tmp;
    2aa6:	8a7b      	ldrh	r3, [r7, #18]
D:\IntelligentVehicleProjects\K60_SmartCar_20160411\Debug/../05_Driver/adc/adc.c:137
}
    2aa8:	4618      	mov	r0, r3
    2aaa:	3718      	adds	r7, #24
    2aac:	46bd      	mov	sp, r7
    2aae:	bd80      	pop	{r7, pc}

00002ab0 <adc_ave>:
adc_ave():
D:\IntelligentVehicleProjects\K60_SmartCar_20160411\Debug/../05_Driver/adc/adc.c:149
//              accuracy
//                     N:(:0~255)
//(:0-4095) 
//============================================================================
uint16_t adc_ave(int MoudelNumber,int Channel,uint8_t accuracy,uint8_t N)
{
    2ab0:	b580      	push	{r7, lr}
    2ab2:	b086      	sub	sp, #24
    2ab4:	af00      	add	r7, sp, #0
    2ab6:	60f8      	str	r0, [r7, #12]
    2ab8:	60b9      	str	r1, [r7, #8]
    2aba:	71fa      	strb	r2, [r7, #7]
    2abc:	71bb      	strb	r3, [r7, #6]
D:\IntelligentVehicleProjects\K60_SmartCar_20160411\Debug/../05_Driver/adc/adc.c:150
	uint32_t tmp = 0;
    2abe:	2300      	movs	r3, #0
    2ac0:	617b      	str	r3, [r7, #20]
D:\IntelligentVehicleProjects\K60_SmartCar_20160411\Debug/../05_Driver/adc/adc.c:152
	uint8_t  i;
    for(i = 0; i < N; i++)
    2ac2:	2300      	movs	r3, #0
    2ac4:	74fb      	strb	r3, [r7, #19]
    2ac6:	e00c      	b.n	2ae2 <adc_ave+0x32>
D:\IntelligentVehicleProjects\K60_SmartCar_20160411\Debug/../05_Driver/adc/adc.c:153 (discriminator 2)
		tmp += adc_mid(MoudelNumber,Channel,accuracy);
    2ac8:	79fb      	ldrb	r3, [r7, #7]
    2aca:	68f8      	ldr	r0, [r7, #12]
    2acc:	68b9      	ldr	r1, [r7, #8]
    2ace:	461a      	mov	r2, r3
    2ad0:	f7ff ffb0 	bl	2a34 <adc_mid>
    2ad4:	4603      	mov	r3, r0
    2ad6:	697a      	ldr	r2, [r7, #20]
    2ad8:	4413      	add	r3, r2
    2ada:	617b      	str	r3, [r7, #20]
D:\IntelligentVehicleProjects\K60_SmartCar_20160411\Debug/../05_Driver/adc/adc.c:152 (discriminator 2)
//============================================================================
uint16_t adc_ave(int MoudelNumber,int Channel,uint8_t accuracy,uint8_t N)
{
	uint32_t tmp = 0;
	uint8_t  i;
    for(i = 0; i < N; i++)
    2adc:	7cfb      	ldrb	r3, [r7, #19]
    2ade:	3301      	adds	r3, #1
    2ae0:	74fb      	strb	r3, [r7, #19]
D:\IntelligentVehicleProjects\K60_SmartCar_20160411\Debug/../05_Driver/adc/adc.c:152 (discriminator 1)
    2ae2:	7cfa      	ldrb	r2, [r7, #19]
    2ae4:	79bb      	ldrb	r3, [r7, #6]
    2ae6:	429a      	cmp	r2, r3
    2ae8:	d3ee      	bcc.n	2ac8 <adc_ave+0x18>
D:\IntelligentVehicleProjects\K60_SmartCar_20160411\Debug/../05_Driver/adc/adc.c:154
		tmp += adc_mid(MoudelNumber,Channel,accuracy);
	tmp = tmp / N; 
    2aea:	79bb      	ldrb	r3, [r7, #6]
    2aec:	697a      	ldr	r2, [r7, #20]
    2aee:	fbb2 f3f3 	udiv	r3, r2, r3
    2af2:	617b      	str	r3, [r7, #20]
D:\IntelligentVehicleProjects\K60_SmartCar_20160411\Debug/../05_Driver/adc/adc.c:155
    return (uint16_t)tmp;
    2af4:	697b      	ldr	r3, [r7, #20]
    2af6:	b29b      	uxth	r3, r3
D:\IntelligentVehicleProjects\K60_SmartCar_20160411\Debug/../05_Driver/adc/adc.c:156
}
    2af8:	4618      	mov	r0, r3
    2afa:	3718      	adds	r7, #24
    2afc:	46bd      	mov	sp, r7
    2afe:	bd80      	pop	{r7, pc}

00002b00 <zero_fill_bss>:
zero_fill_bss():
D:\IntelligentVehicleProjects\K60_SmartCar_20160411\Debug/../03_MCU/startup.c:61

//#endif

static void zero_fill_bss(void)

{
    2b00:	b580      	push	{r7, lr}
    2b02:	af00      	add	r7, sp, #0
D:\IntelligentVehicleProjects\K60_SmartCar_20160411\Debug/../03_MCU/startup.c:64
	extern char __START_BSS[];
	extern char __END_BSS[];
	memset(__START_BSS, 0, (__END_BSS - __START_BSS));
    2b04:	4a04      	ldr	r2, [pc, #16]	; (2b18 <zero_fill_bss+0x18>)
    2b06:	4b05      	ldr	r3, [pc, #20]	; (2b1c <zero_fill_bss+0x1c>)
    2b08:	1ad3      	subs	r3, r2, r3
    2b0a:	4804      	ldr	r0, [pc, #16]	; (2b1c <zero_fill_bss+0x1c>)
    2b0c:	2100      	movs	r1, #0
    2b0e:	461a      	mov	r2, r3
    2b10:	f000 ff2c 	bl	396c <memset>
D:\IntelligentVehicleProjects\K60_SmartCar_20160411\Debug/../03_MCU/startup.c:65
}
    2b14:	bd80      	pop	{r7, pc}
    2b16:	bf00      	nop
    2b18:	1fff0188 	.word	0x1fff0188
    2b1c:	1fff008c 	.word	0x1fff008c

00002b20 <gpio_io_init>:
gpio_io_init():
D:\IntelligentVehicleProjects\K60_SmartCar_20160411\Debug/../03_MCU/startup.c:68
extern uint32_t __vector_table[];
void gpio_io_init( void )
{
    2b20:	b480      	push	{r7}
    2b22:	af00      	add	r7, sp, #0
D:\IntelligentVehicleProjects\K60_SmartCar_20160411\Debug/../03_MCU/startup.c:70
    /* Enable clock gating to all ports */
    SIM_SCGC5 |=   SIM_SCGC5_PORTA_MASK \
    2b24:	4907      	ldr	r1, [pc, #28]	; (2b44 <gpio_io_init+0x24>)
    2b26:	4b07      	ldr	r3, [pc, #28]	; (2b44 <gpio_io_init+0x24>)
    2b28:	f503 5381 	add.w	r3, r3, #4128	; 0x1020
    2b2c:	3318      	adds	r3, #24
    2b2e:	681b      	ldr	r3, [r3, #0]
    2b30:	f443 5278 	orr.w	r2, r3, #15872	; 0x3e00
    2b34:	f501 5381 	add.w	r3, r1, #4128	; 0x1020
    2b38:	3318      	adds	r3, #24
    2b3a:	601a      	str	r2, [r3, #0]
D:\IntelligentVehicleProjects\K60_SmartCar_20160411\Debug/../03_MCU/startup.c:75
                 | SIM_SCGC5_PORTB_MASK \
                 | SIM_SCGC5_PORTC_MASK \
                 | SIM_SCGC5_PORTD_MASK \
                 | SIM_SCGC5_PORTE_MASK;
}
    2b3c:	46bd      	mov	sp, r7
    2b3e:	f85d 7b04 	ldr.w	r7, [sp], #4
    2b42:	4770      	bx	lr
    2b44:	40047000 	.word	0x40047000

00002b48 <wdog_disable1>:
wdog_disable1():
D:\IntelligentVehicleProjects\K60_SmartCar_20160411\Debug/../03_MCU/startup.c:77
void wdog_disable1(void)
{  
    2b48:	b480      	push	{r7}
    2b4a:	b083      	sub	sp, #12
    2b4c:	af00      	add	r7, sp, #0
D:\IntelligentVehicleProjects\K60_SmartCar_20160411\Debug/../03_MCU/startup.c:80
	WDOG_MemMapPtr reg;
	
	reg = WDOG_BASE_PTR;
    2b4e:	4b0b      	ldr	r3, [pc, #44]	; (2b7c <wdog_disable1+0x34>)
    2b50:	607b      	str	r3, [r7, #4]
D:\IntelligentVehicleProjects\K60_SmartCar_20160411\Debug/../03_MCU/startup.c:82
    /* unlock watchdog */
    reg->UNLOCK = 0xc520;
    2b52:	687b      	ldr	r3, [r7, #4]
    2b54:	f24c 5220 	movw	r2, #50464	; 0xc520
    2b58:	81da      	strh	r2, [r3, #14]
D:\IntelligentVehicleProjects\K60_SmartCar_20160411\Debug/../03_MCU/startup.c:83
    reg->UNLOCK = 0xd928;
    2b5a:	687b      	ldr	r3, [r7, #4]
    2b5c:	f64d 1228 	movw	r2, #55592	; 0xd928
    2b60:	81da      	strh	r2, [r3, #14]
D:\IntelligentVehicleProjects\K60_SmartCar_20160411\Debug/../03_MCU/startup.c:85
    /* disable watchdog */
    reg->STCTRLH &= ~(WDOG_STCTRLH_WDOGEN_MASK);
    2b62:	687b      	ldr	r3, [r7, #4]
    2b64:	881b      	ldrh	r3, [r3, #0]
    2b66:	b29b      	uxth	r3, r3
    2b68:	f023 0301 	bic.w	r3, r3, #1
    2b6c:	b29a      	uxth	r2, r3
    2b6e:	687b      	ldr	r3, [r7, #4]
    2b70:	801a      	strh	r2, [r3, #0]
D:\IntelligentVehicleProjects\K60_SmartCar_20160411\Debug/../03_MCU/startup.c:86
}
    2b72:	370c      	adds	r7, #12
    2b74:	46bd      	mov	sp, r7
    2b76:	f85d 7b04 	ldr.w	r7, [sp], #4
    2b7a:	4770      	bx	lr
    2b7c:	40052000 	.word	0x40052000

00002b80 <__flush_cache>:
__flush_cache():
D:\IntelligentVehicleProjects\K60_SmartCar_20160411\Debug/../03_MCU/startup.c:101

/*
 * Routine to flush cache follow the ROM to RAM copy
 */
void __flush_cache(unsigned long dst, unsigned long size)
{
    2b80:	b480      	push	{r7}
    2b82:	b083      	sub	sp, #12
    2b84:	af00      	add	r7, sp, #0
    2b86:	6078      	str	r0, [r7, #4]
    2b88:	6039      	str	r1, [r7, #0]
D:\IntelligentVehicleProjects\K60_SmartCar_20160411\Debug/../03_MCU/startup.c:103
	//TBD
}
    2b8a:	370c      	adds	r7, #12
    2b8c:	46bd      	mov	sp, r7
    2b8e:	f85d 7b04 	ldr.w	r7, [sp], #4
    2b92:	4770      	bx	lr

00002b94 <__copy_rom_section>:
__copy_rom_section():
D:\IntelligentVehicleProjects\K60_SmartCar_20160411\Debug/../03_MCU/startup.c:110

/*
 *	Routine to copy a single section from ROM to RAM ...
 */
void __copy_rom_section(unsigned long dst, unsigned long src, unsigned long size)
{
    2b94:	b480      	push	{r7}
    2b96:	b08b      	sub	sp, #44	; 0x2c
    2b98:	af00      	add	r7, sp, #0
    2b9a:	60f8      	str	r0, [r7, #12]
    2b9c:	60b9      	str	r1, [r7, #8]
    2b9e:	607a      	str	r2, [r7, #4]
D:\IntelligentVehicleProjects\K60_SmartCar_20160411\Debug/../03_MCU/startup.c:111
	unsigned long len = size;
    2ba0:	687b      	ldr	r3, [r7, #4]
    2ba2:	627b      	str	r3, [r7, #36]	; 0x24
D:\IntelligentVehicleProjects\K60_SmartCar_20160411\Debug/../03_MCU/startup.c:113

	const int size_int = sizeof(int);
    2ba4:	2304      	movs	r3, #4
    2ba6:	623b      	str	r3, [r7, #32]
D:\IntelligentVehicleProjects\K60_SmartCar_20160411\Debug/../03_MCU/startup.c:114
	const int mask_int = sizeof(int)-1;
    2ba8:	2303      	movs	r3, #3
    2baa:	61fb      	str	r3, [r7, #28]
D:\IntelligentVehicleProjects\K60_SmartCar_20160411\Debug/../03_MCU/startup.c:116

	const int size_short = sizeof(short);
    2bac:	2302      	movs	r3, #2
    2bae:	61bb      	str	r3, [r7, #24]
D:\IntelligentVehicleProjects\K60_SmartCar_20160411\Debug/../03_MCU/startup.c:117
	const int mask_short = sizeof(short)-1;
    2bb0:	2301      	movs	r3, #1
    2bb2:	617b      	str	r3, [r7, #20]
D:\IntelligentVehicleProjects\K60_SmartCar_20160411\Debug/../03_MCU/startup.c:119

	const int size_char = sizeof(char);
    2bb4:	2301      	movs	r3, #1
    2bb6:	613b      	str	r3, [r7, #16]
D:\IntelligentVehicleProjects\K60_SmartCar_20160411\Debug/../03_MCU/startup.c:121

	if( dst == src || size == 0)
    2bb8:	68fa      	ldr	r2, [r7, #12]
    2bba:	68bb      	ldr	r3, [r7, #8]
    2bbc:	429a      	cmp	r2, r3
    2bbe:	d002      	beq.n	2bc6 <__copy_rom_section+0x32>
D:\IntelligentVehicleProjects\K60_SmartCar_20160411\Debug/../03_MCU/startup.c:121 (discriminator 1)
    2bc0:	687b      	ldr	r3, [r7, #4]
    2bc2:	2b00      	cmp	r3, #0
    2bc4:	d100      	bne.n	2bc8 <__copy_rom_section+0x34>
D:\IntelligentVehicleProjects\K60_SmartCar_20160411\Debug/../03_MCU/startup.c:123
	{
		return;
    2bc6:	e051      	b.n	2c6c <__copy_rom_section+0xd8>
D:\IntelligentVehicleProjects\K60_SmartCar_20160411\Debug/../03_MCU/startup.c:127
	}


	while( len > 0)
    2bc8:	e04d      	b.n	2c66 <__copy_rom_section+0xd2>
D:\IntelligentVehicleProjects\K60_SmartCar_20160411\Debug/../03_MCU/startup.c:130
	{

		if( !(src & mask_int) && !(dst & mask_int) && len >= size_int)
    2bca:	69fa      	ldr	r2, [r7, #28]
    2bcc:	68bb      	ldr	r3, [r7, #8]
    2bce:	4013      	ands	r3, r2
    2bd0:	2b00      	cmp	r3, #0
    2bd2:	d119      	bne.n	2c08 <__copy_rom_section+0x74>
D:\IntelligentVehicleProjects\K60_SmartCar_20160411\Debug/../03_MCU/startup.c:130 (discriminator 1)
    2bd4:	69fa      	ldr	r2, [r7, #28]
    2bd6:	68fb      	ldr	r3, [r7, #12]
    2bd8:	4013      	ands	r3, r2
    2bda:	2b00      	cmp	r3, #0
    2bdc:	d114      	bne.n	2c08 <__copy_rom_section+0x74>
    2bde:	6a3a      	ldr	r2, [r7, #32]
    2be0:	6a7b      	ldr	r3, [r7, #36]	; 0x24
    2be2:	429a      	cmp	r2, r3
    2be4:	d810      	bhi.n	2c08 <__copy_rom_section+0x74>
D:\IntelligentVehicleProjects\K60_SmartCar_20160411\Debug/../03_MCU/startup.c:132
		{
			*((int *)dst)  = *((int*)src);
    2be6:	68fb      	ldr	r3, [r7, #12]
    2be8:	68ba      	ldr	r2, [r7, #8]
    2bea:	6812      	ldr	r2, [r2, #0]
    2bec:	601a      	str	r2, [r3, #0]
D:\IntelligentVehicleProjects\K60_SmartCar_20160411\Debug/../03_MCU/startup.c:133
			dst += size_int;
    2bee:	6a3b      	ldr	r3, [r7, #32]
    2bf0:	68fa      	ldr	r2, [r7, #12]
    2bf2:	4413      	add	r3, r2
    2bf4:	60fb      	str	r3, [r7, #12]
D:\IntelligentVehicleProjects\K60_SmartCar_20160411\Debug/../03_MCU/startup.c:134
			src += size_int;
    2bf6:	6a3b      	ldr	r3, [r7, #32]
    2bf8:	68ba      	ldr	r2, [r7, #8]
    2bfa:	4413      	add	r3, r2
    2bfc:	60bb      	str	r3, [r7, #8]
D:\IntelligentVehicleProjects\K60_SmartCar_20160411\Debug/../03_MCU/startup.c:135
			len -= size_int;
    2bfe:	6a3b      	ldr	r3, [r7, #32]
    2c00:	6a7a      	ldr	r2, [r7, #36]	; 0x24
    2c02:	1ad3      	subs	r3, r2, r3
    2c04:	627b      	str	r3, [r7, #36]	; 0x24
    2c06:	e02e      	b.n	2c66 <__copy_rom_section+0xd2>
D:\IntelligentVehicleProjects\K60_SmartCar_20160411\Debug/../03_MCU/startup.c:137
		}
		else if( !(src & mask_short) && !(dst & mask_short) && len >= size_short)
    2c08:	697a      	ldr	r2, [r7, #20]
    2c0a:	68bb      	ldr	r3, [r7, #8]
    2c0c:	4013      	ands	r3, r2
    2c0e:	2b00      	cmp	r3, #0
    2c10:	d119      	bne.n	2c46 <__copy_rom_section+0xb2>
D:\IntelligentVehicleProjects\K60_SmartCar_20160411\Debug/../03_MCU/startup.c:137 (discriminator 1)
    2c12:	697a      	ldr	r2, [r7, #20]
    2c14:	68fb      	ldr	r3, [r7, #12]
    2c16:	4013      	ands	r3, r2
    2c18:	2b00      	cmp	r3, #0
    2c1a:	d114      	bne.n	2c46 <__copy_rom_section+0xb2>
    2c1c:	69ba      	ldr	r2, [r7, #24]
    2c1e:	6a7b      	ldr	r3, [r7, #36]	; 0x24
    2c20:	429a      	cmp	r2, r3
    2c22:	d810      	bhi.n	2c46 <__copy_rom_section+0xb2>
D:\IntelligentVehicleProjects\K60_SmartCar_20160411\Debug/../03_MCU/startup.c:139
		{
			*((short *)dst)  = *((short*)src);
    2c24:	68fb      	ldr	r3, [r7, #12]
    2c26:	68ba      	ldr	r2, [r7, #8]
    2c28:	8812      	ldrh	r2, [r2, #0]
    2c2a:	801a      	strh	r2, [r3, #0]
D:\IntelligentVehicleProjects\K60_SmartCar_20160411\Debug/../03_MCU/startup.c:140
			dst += size_short;
    2c2c:	69bb      	ldr	r3, [r7, #24]
    2c2e:	68fa      	ldr	r2, [r7, #12]
    2c30:	4413      	add	r3, r2
    2c32:	60fb      	str	r3, [r7, #12]
D:\IntelligentVehicleProjects\K60_SmartCar_20160411\Debug/../03_MCU/startup.c:141
			src += size_short;
    2c34:	69bb      	ldr	r3, [r7, #24]
    2c36:	68ba      	ldr	r2, [r7, #8]
    2c38:	4413      	add	r3, r2
    2c3a:	60bb      	str	r3, [r7, #8]
D:\IntelligentVehicleProjects\K60_SmartCar_20160411\Debug/../03_MCU/startup.c:142
			len -= size_short;
    2c3c:	69bb      	ldr	r3, [r7, #24]
    2c3e:	6a7a      	ldr	r2, [r7, #36]	; 0x24
    2c40:	1ad3      	subs	r3, r2, r3
    2c42:	627b      	str	r3, [r7, #36]	; 0x24
    2c44:	e00f      	b.n	2c66 <__copy_rom_section+0xd2>
D:\IntelligentVehicleProjects\K60_SmartCar_20160411\Debug/../03_MCU/startup.c:146
		}
		else
		{
			*((char *)dst)  = *((char*)src);
    2c46:	68fb      	ldr	r3, [r7, #12]
    2c48:	68ba      	ldr	r2, [r7, #8]
    2c4a:	7812      	ldrb	r2, [r2, #0]
    2c4c:	701a      	strb	r2, [r3, #0]
D:\IntelligentVehicleProjects\K60_SmartCar_20160411\Debug/../03_MCU/startup.c:147
			dst += size_char;
    2c4e:	693b      	ldr	r3, [r7, #16]
    2c50:	68fa      	ldr	r2, [r7, #12]
    2c52:	4413      	add	r3, r2
    2c54:	60fb      	str	r3, [r7, #12]
D:\IntelligentVehicleProjects\K60_SmartCar_20160411\Debug/../03_MCU/startup.c:148
			src += size_char;
    2c56:	693b      	ldr	r3, [r7, #16]
    2c58:	68ba      	ldr	r2, [r7, #8]
    2c5a:	4413      	add	r3, r2
    2c5c:	60bb      	str	r3, [r7, #8]
D:\IntelligentVehicleProjects\K60_SmartCar_20160411\Debug/../03_MCU/startup.c:149
			len -= size_char;
    2c5e:	693b      	ldr	r3, [r7, #16]
    2c60:	6a7a      	ldr	r2, [r7, #36]	; 0x24
    2c62:	1ad3      	subs	r3, r2, r3
    2c64:	627b      	str	r3, [r7, #36]	; 0x24
D:\IntelligentVehicleProjects\K60_SmartCar_20160411\Debug/../03_MCU/startup.c:127 (discriminator 1)
	{
		return;
	}


	while( len > 0)
    2c66:	6a7b      	ldr	r3, [r7, #36]	; 0x24
    2c68:	2b00      	cmp	r3, #0
    2c6a:	d1ae      	bne.n	2bca <__copy_rom_section+0x36>
D:\IntelligentVehicleProjects\K60_SmartCar_20160411\Debug/../03_MCU/startup.c:152
			dst += size_char;
			src += size_char;
			len -= size_char;
		}
	}
}
    2c6c:	372c      	adds	r7, #44	; 0x2c
    2c6e:	46bd      	mov	sp, r7
    2c70:	f85d 7b04 	ldr.w	r7, [sp], #4
    2c74:	4770      	bx	lr
    2c76:	bf00      	nop

00002c78 <__copy_rom_sections_to_ram>:
__copy_rom_sections_to_ram():
D:\IntelligentVehicleProjects\K60_SmartCar_20160411\Debug/../03_MCU/startup.c:164
 *  It is a table of RomInfo
 *	structures.  The final entry in the table has all-zero
 *	fields.
 */
void __copy_rom_sections_to_ram(void)
{
    2c78:	b590      	push	{r4, r7, lr}
    2c7a:	b083      	sub	sp, #12
    2c7c:	af00      	add	r7, sp, #0
D:\IntelligentVehicleProjects\K60_SmartCar_20160411\Debug/../03_MCU/startup.c:168

	int				index;

	if (__S_romp == 0L) return;
    2c7e:	4b2e      	ldr	r3, [pc, #184]	; (2d38 <__copy_rom_sections_to_ram+0xc0>)
    2c80:	2b00      	cmp	r3, #0
    2c82:	d100      	bne.n	2c86 <__copy_rom_sections_to_ram+0xe>
D:\IntelligentVehicleProjects\K60_SmartCar_20160411\Debug/../03_MCU/startup.c:168 (discriminator 1)
    2c84:	e055      	b.n	2d32 <__copy_rom_sections_to_ram+0xba>
D:\IntelligentVehicleProjects\K60_SmartCar_20160411\Debug/../03_MCU/startup.c:173

	/*
	 *	Go through the entire table, copying sections from ROM to RAM.
	 */
	for (index = 0;
    2c86:	2300      	movs	r3, #0
    2c88:	607b      	str	r3, [r7, #4]
    2c8a:	e033      	b.n	2cf4 <__copy_rom_sections_to_ram+0x7c>
D:\IntelligentVehicleProjects\K60_SmartCar_20160411\Debug/../03_MCU/startup.c:179
		 __S_romp[index].Source != 0 ||
		 __S_romp[index].Target != 0 ||
		 __S_romp[index].Size != 0;
		 ++index)
	{
		__copy_rom_section( __S_romp[index].Target,
    2c8c:	492a      	ldr	r1, [pc, #168]	; (2d38 <__copy_rom_sections_to_ram+0xc0>)
    2c8e:	687a      	ldr	r2, [r7, #4]
    2c90:	4613      	mov	r3, r2
    2c92:	005b      	lsls	r3, r3, #1
    2c94:	4413      	add	r3, r2
    2c96:	009b      	lsls	r3, r3, #2
    2c98:	440b      	add	r3, r1
    2c9a:	6858      	ldr	r0, [r3, #4]
    2c9c:	4926      	ldr	r1, [pc, #152]	; (2d38 <__copy_rom_sections_to_ram+0xc0>)
    2c9e:	687a      	ldr	r2, [r7, #4]
    2ca0:	4613      	mov	r3, r2
    2ca2:	005b      	lsls	r3, r3, #1
    2ca4:	4413      	add	r3, r2
    2ca6:	009b      	lsls	r3, r3, #2
    2ca8:	440b      	add	r3, r1
    2caa:	6819      	ldr	r1, [r3, #0]
    2cac:	4c22      	ldr	r4, [pc, #136]	; (2d38 <__copy_rom_sections_to_ram+0xc0>)
    2cae:	687a      	ldr	r2, [r7, #4]
    2cb0:	4613      	mov	r3, r2
    2cb2:	005b      	lsls	r3, r3, #1
    2cb4:	4413      	add	r3, r2
    2cb6:	009b      	lsls	r3, r3, #2
    2cb8:	4423      	add	r3, r4
    2cba:	3308      	adds	r3, #8
    2cbc:	681b      	ldr	r3, [r3, #0]
    2cbe:	461a      	mov	r2, r3
    2cc0:	f7ff ff68 	bl	2b94 <__copy_rom_section>
D:\IntelligentVehicleProjects\K60_SmartCar_20160411\Debug/../03_MCU/startup.c:183
							__S_romp[index].Source,
							__S_romp[index].Size );

		__flush_cache( __S_romp[index].Target, __S_romp[index].Size);
    2cc4:	491c      	ldr	r1, [pc, #112]	; (2d38 <__copy_rom_sections_to_ram+0xc0>)
    2cc6:	687a      	ldr	r2, [r7, #4]
    2cc8:	4613      	mov	r3, r2
    2cca:	005b      	lsls	r3, r3, #1
    2ccc:	4413      	add	r3, r2
    2cce:	009b      	lsls	r3, r3, #2
    2cd0:	440b      	add	r3, r1
    2cd2:	6859      	ldr	r1, [r3, #4]
    2cd4:	4818      	ldr	r0, [pc, #96]	; (2d38 <__copy_rom_sections_to_ram+0xc0>)
    2cd6:	687a      	ldr	r2, [r7, #4]
    2cd8:	4613      	mov	r3, r2
    2cda:	005b      	lsls	r3, r3, #1
    2cdc:	4413      	add	r3, r2
    2cde:	009b      	lsls	r3, r3, #2
    2ce0:	4403      	add	r3, r0
    2ce2:	3308      	adds	r3, #8
    2ce4:	681b      	ldr	r3, [r3, #0]
    2ce6:	4608      	mov	r0, r1
    2ce8:	4619      	mov	r1, r3
    2cea:	f7ff ff49 	bl	2b80 <__flush_cache>
D:\IntelligentVehicleProjects\K60_SmartCar_20160411\Debug/../03_MCU/startup.c:177
	 */
	for (index = 0;
		 __S_romp[index].Source != 0 ||
		 __S_romp[index].Target != 0 ||
		 __S_romp[index].Size != 0;
		 ++index)
    2cee:	687b      	ldr	r3, [r7, #4]
    2cf0:	3301      	adds	r3, #1
    2cf2:	607b      	str	r3, [r7, #4]
D:\IntelligentVehicleProjects\K60_SmartCar_20160411\Debug/../03_MCU/startup.c:174 (discriminator 1)

	/*
	 *	Go through the entire table, copying sections from ROM to RAM.
	 */
	for (index = 0;
		 __S_romp[index].Source != 0 ||
    2cf4:	4910      	ldr	r1, [pc, #64]	; (2d38 <__copy_rom_sections_to_ram+0xc0>)
    2cf6:	687a      	ldr	r2, [r7, #4]
    2cf8:	4613      	mov	r3, r2
    2cfa:	005b      	lsls	r3, r3, #1
    2cfc:	4413      	add	r3, r2
    2cfe:	009b      	lsls	r3, r3, #2
    2d00:	440b      	add	r3, r1
    2d02:	681b      	ldr	r3, [r3, #0]
D:\IntelligentVehicleProjects\K60_SmartCar_20160411\Debug/../03_MCU/startup.c:173 (discriminator 1)
	if (__S_romp == 0L) return;

	/*
	 *	Go through the entire table, copying sections from ROM to RAM.
	 */
	for (index = 0;
    2d04:	2b00      	cmp	r3, #0
    2d06:	d1c1      	bne.n	2c8c <__copy_rom_sections_to_ram+0x14>
D:\IntelligentVehicleProjects\K60_SmartCar_20160411\Debug/../03_MCU/startup.c:175
		 __S_romp[index].Source != 0 ||
		 __S_romp[index].Target != 0 ||
    2d08:	490b      	ldr	r1, [pc, #44]	; (2d38 <__copy_rom_sections_to_ram+0xc0>)
    2d0a:	687a      	ldr	r2, [r7, #4]
    2d0c:	4613      	mov	r3, r2
    2d0e:	005b      	lsls	r3, r3, #1
    2d10:	4413      	add	r3, r2
    2d12:	009b      	lsls	r3, r3, #2
    2d14:	440b      	add	r3, r1
    2d16:	685b      	ldr	r3, [r3, #4]
D:\IntelligentVehicleProjects\K60_SmartCar_20160411\Debug/../03_MCU/startup.c:174

	/*
	 *	Go through the entire table, copying sections from ROM to RAM.
	 */
	for (index = 0;
		 __S_romp[index].Source != 0 ||
    2d18:	2b00      	cmp	r3, #0
    2d1a:	d1b7      	bne.n	2c8c <__copy_rom_sections_to_ram+0x14>
D:\IntelligentVehicleProjects\K60_SmartCar_20160411\Debug/../03_MCU/startup.c:176
		 __S_romp[index].Target != 0 ||
		 __S_romp[index].Size != 0;
    2d1c:	4906      	ldr	r1, [pc, #24]	; (2d38 <__copy_rom_sections_to_ram+0xc0>)
    2d1e:	687a      	ldr	r2, [r7, #4]
    2d20:	4613      	mov	r3, r2
    2d22:	005b      	lsls	r3, r3, #1
    2d24:	4413      	add	r3, r2
    2d26:	009b      	lsls	r3, r3, #2
    2d28:	440b      	add	r3, r1
    2d2a:	3308      	adds	r3, #8
    2d2c:	681b      	ldr	r3, [r3, #0]
D:\IntelligentVehicleProjects\K60_SmartCar_20160411\Debug/../03_MCU/startup.c:175
	/*
	 *	Go through the entire table, copying sections from ROM to RAM.
	 */
	for (index = 0;
		 __S_romp[index].Source != 0 ||
		 __S_romp[index].Target != 0 ||
    2d2e:	2b00      	cmp	r3, #0
    2d30:	d1ac      	bne.n	2c8c <__copy_rom_sections_to_ram+0x14>
D:\IntelligentVehicleProjects\K60_SmartCar_20160411\Debug/../03_MCU/startup.c:187

		__flush_cache( __S_romp[index].Target, __S_romp[index].Size);


	}
}
    2d32:	370c      	adds	r7, #12
    2d34:	46bd      	mov	sp, r7
    2d36:	bd90      	pop	{r4, r7, pc}
    2d38:	00003a64 	.word	0x00003a64

00002d3c <__init_hardware>:
__init_hardware():
D:\IntelligentVehicleProjects\K60_SmartCar_20160411\Debug/../03_MCU/startup.c:190

void __init_hardware()
{
    2d3c:	b480      	push	{r7}
    2d3e:	af00      	add	r7, sp, #0
D:\IntelligentVehicleProjects\K60_SmartCar_20160411\Debug/../03_MCU/startup.c:191
	SCB_VTOR = (uint32_t)__vector_table; /* Set the interrupt vector table position */
    2d40:	f04f 23e0 	mov.w	r3, #3758153728	; 0xe000e000
    2d44:	4a03      	ldr	r2, [pc, #12]	; (2d54 <__init_hardware+0x18>)
    2d46:	f8c3 2d08 	str.w	r2, [r3, #3336]	; 0xd08
D:\IntelligentVehicleProjects\K60_SmartCar_20160411\Debug/../03_MCU/startup.c:192
}
    2d4a:	46bd      	mov	sp, r7
    2d4c:	f85d 7b04 	ldr.w	r7, [sp], #4
    2d50:	4770      	bx	lr
    2d52:	bf00      	nop
    2d54:	00000000 	.word	0x00000000

00002d58 <__thumb_startup>:
__thumb_startup():
D:\IntelligentVehicleProjects\K60_SmartCar_20160411\Debug/../03_MCU/startup.c:195

void __thumb_startup(void)
{
    2d58:	b580      	push	{r7, lr}
    2d5a:	af00      	add	r7, sp, #0
D:\IntelligentVehicleProjects\K60_SmartCar_20160411\Debug/../03_MCU/startup.c:197
	//
    wdog_disable1();
    2d5c:	f7ff fef4 	bl	2b48 <wdog_disable1>
D:\IntelligentVehicleProjects\K60_SmartCar_20160411\Debug/../03_MCU/startup.c:199
    //
    gpio_io_init();
    2d60:	f7ff fede 	bl	2b20 <gpio_io_init>
D:\IntelligentVehicleProjects\K60_SmartCar_20160411\Debug/../03_MCU/startup.c:201
	//
    __init_hardware();
    2d64:	f7ff ffea 	bl	2d3c <__init_hardware>
D:\IntelligentVehicleProjects\K60_SmartCar_20160411\Debug/../03_MCU/startup.c:203
    //
	zero_fill_bss();
    2d68:	f7ff feca 	bl	2b00 <zero_fill_bss>
D:\IntelligentVehicleProjects\K60_SmartCar_20160411\Debug/../03_MCU/startup.c:206
	//ROMRAM
#if SUPPORT_ROM_TO_RAM
	if (__S_romp != 0L)
    2d6c:	4b08      	ldr	r3, [pc, #32]	; (2d90 <__thumb_startup+0x38>)
    2d6e:	2b00      	cmp	r3, #0
    2d70:	d001      	beq.n	2d76 <__thumb_startup+0x1e>
D:\IntelligentVehicleProjects\K60_SmartCar_20160411\Debug/../03_MCU/startup.c:207
		__copy_rom_sections_to_ram();
    2d72:	f7ff ff81 	bl	2c78 <__copy_rom_sections_to_ram>
D:\IntelligentVehicleProjects\K60_SmartCar_20160411\Debug/../03_MCU/startup.c:214
	//
//	__call_static_initializers();
	//
//	__init_user();
	//
	SystemClockSetup(ClockSource_EX50M,CoreClock_96M);
    2d76:	2005      	movs	r0, #5
    2d78:	2111      	movs	r1, #17
    2d7a:	f000 f80d 	bl	2d98 <SystemClockSetup>
D:\IntelligentVehicleProjects\K60_SmartCar_20160411\Debug/../03_MCU/startup.c:217
	//sys_pll_init1();
	//Main
	exit(main(0, argv));
    2d7e:	2000      	movs	r0, #0
    2d80:	4904      	ldr	r1, [pc, #16]	; (2d94 <__thumb_startup+0x3c>)
    2d82:	f7fe fd77 	bl	1874 <main>
    2d86:	4603      	mov	r3, r0
    2d88:	4618      	mov	r0, r3
    2d8a:	f000 fddb 	bl	3944 <exit>
    2d8e:	bf00      	nop
    2d90:	00003a64 	.word	0x00003a64
    2d94:	1fff00d0 	.word	0x1fff00d0

00002d98 <SystemClockSetup>:
SystemClockSetup():
D:\IntelligentVehicleProjects\K60_SmartCar_20160411\Debug/../03_MCU/sysint.c:35
 * @retval None
 * 
 * 
 */
void SystemClockSetup(uint8_t ClockOption,uint16_t CoreClock)
{
    2d98:	b480      	push	{r7}
    2d9a:	b083      	sub	sp, #12
    2d9c:	af00      	add	r7, sp, #0
    2d9e:	4602      	mov	r2, r0
    2da0:	460b      	mov	r3, r1
    2da2:	71fa      	strb	r2, [r7, #7]
    2da4:	80bb      	strh	r3, [r7, #4]
D:\IntelligentVehicleProjects\K60_SmartCar_20160411\Debug/../03_MCU/sysint.c:36
    if(ClockOption == ClockSource_IRC)
    2da6:	79fb      	ldrb	r3, [r7, #7]
    2da8:	2b00      	cmp	r3, #0
    2daa:	d176      	bne.n	2e9a <SystemClockSetup+0x102>
D:\IntelligentVehicleProjects\K60_SmartCar_20160411\Debug/../03_MCU/sysint.c:39
    {
        //  FEI 
        MCG_C1 = (uint8_t)0x06u;  //32KHz
    2dac:	4bad      	ldr	r3, [pc, #692]	; (3064 <SystemClockSetup+0x2cc>)
    2dae:	2206      	movs	r2, #6
    2db0:	701a      	strb	r2, [r3, #0]
D:\IntelligentVehicleProjects\K60_SmartCar_20160411\Debug/../03_MCU/sysint.c:40
        MCG_C2 = (uint8_t)0x00u;
    2db2:	4bac      	ldr	r3, [pc, #688]	; (3064 <SystemClockSetup+0x2cc>)
    2db4:	2200      	movs	r2, #0
    2db6:	705a      	strb	r2, [r3, #1]
D:\IntelligentVehicleProjects\K60_SmartCar_20160411\Debug/../03_MCU/sysint.c:41
        MCG_C4 &= ~((1<<6)|(1<<7)|(1<<5));
    2db8:	4baa      	ldr	r3, [pc, #680]	; (3064 <SystemClockSetup+0x2cc>)
    2dba:	4aaa      	ldr	r2, [pc, #680]	; (3064 <SystemClockSetup+0x2cc>)
    2dbc:	78d2      	ldrb	r2, [r2, #3]
    2dbe:	b2d2      	uxtb	r2, r2
    2dc0:	f002 021f 	and.w	r2, r2, #31
    2dc4:	b2d2      	uxtb	r2, r2
    2dc6:	70da      	strb	r2, [r3, #3]
D:\IntelligentVehicleProjects\K60_SmartCar_20160411\Debug/../03_MCU/sysint.c:42
        switch(CoreClock)
    2dc8:	88bb      	ldrh	r3, [r7, #4]
    2dca:	2b10      	cmp	r3, #16
    2dcc:	d016      	beq.n	2dfc <SystemClockSetup+0x64>
    2dce:	2b11      	cmp	r3, #17
    2dd0:	d002      	beq.n	2dd8 <SystemClockSetup+0x40>
    2dd2:	2b08      	cmp	r3, #8
    2dd4:	d025      	beq.n	2e22 <SystemClockSetup+0x8a>
    2dd6:	e037      	b.n	2e48 <SystemClockSetup+0xb0>
D:\IntelligentVehicleProjects\K60_SmartCar_20160411\Debug/../03_MCU/sysint.c:45
        {
            case CoreClock_96M:
                MCG_C4|= (1<<6)|(1<<7)|(1<<5);  
    2dd8:	4ba2      	ldr	r3, [pc, #648]	; (3064 <SystemClockSetup+0x2cc>)
    2dda:	4aa2      	ldr	r2, [pc, #648]	; (3064 <SystemClockSetup+0x2cc>)
    2ddc:	78d2      	ldrb	r2, [r2, #3]
    2dde:	b2d2      	uxtb	r2, r2
    2de0:	f062 021f 	orn	r2, r2, #31
    2de4:	b2d2      	uxtb	r2, r2
    2de6:	70da      	strb	r2, [r3, #3]
D:\IntelligentVehicleProjects\K60_SmartCar_20160411\Debug/../03_MCU/sysint.c:46
                SIM_CLKDIV1 =(SIM_CLKDIV1_OUTDIV1(0)|SIM_CLKDIV1_OUTDIV2(1)
    2de8:	4b9f      	ldr	r3, [pc, #636]	; (3068 <SystemClockSetup+0x2d0>)
    2dea:	f503 5382 	add.w	r3, r3, #4160	; 0x1040
    2dee:	3304      	adds	r3, #4
    2df0:	4a9e      	ldr	r2, [pc, #632]	; (306c <SystemClockSetup+0x2d4>)
    2df2:	601a      	str	r2, [r3, #0]
D:\IntelligentVehicleProjects\K60_SmartCar_20160411\Debug/../03_MCU/sysint.c:48
                        |SIM_CLKDIV1_OUTDIV3(1)|SIM_CLKDIV1_OUTDIV4(3));
                SystemCoreClock    = 96000000;
    2df4:	4b9e      	ldr	r3, [pc, #632]	; (3070 <SystemClockSetup+0x2d8>)
    2df6:	4a9f      	ldr	r2, [pc, #636]	; (3074 <SystemClockSetup+0x2dc>)
    2df8:	601a      	str	r2, [r3, #0]
D:\IntelligentVehicleProjects\K60_SmartCar_20160411\Debug/../03_MCU/sysint.c:49
                break;
    2dfa:	e038      	b.n	2e6e <SystemClockSetup+0xd6>
D:\IntelligentVehicleProjects\K60_SmartCar_20160411\Debug/../03_MCU/sysint.c:51
            case CoreClock_72M:
                MCG_C4|= (1<<6)|(1<<7)|(0<<5);  
    2dfc:	4b99      	ldr	r3, [pc, #612]	; (3064 <SystemClockSetup+0x2cc>)
    2dfe:	4a99      	ldr	r2, [pc, #612]	; (3064 <SystemClockSetup+0x2cc>)
    2e00:	78d2      	ldrb	r2, [r2, #3]
    2e02:	b2d2      	uxtb	r2, r2
    2e04:	f062 023f 	orn	r2, r2, #63	; 0x3f
    2e08:	b2d2      	uxtb	r2, r2
    2e0a:	70da      	strb	r2, [r3, #3]
D:\IntelligentVehicleProjects\K60_SmartCar_20160411\Debug/../03_MCU/sysint.c:52
                SIM_CLKDIV1 =(SIM_CLKDIV1_OUTDIV1(0)|SIM_CLKDIV1_OUTDIV2(1)
    2e0c:	4b96      	ldr	r3, [pc, #600]	; (3068 <SystemClockSetup+0x2d0>)
    2e0e:	f503 5382 	add.w	r3, r3, #4160	; 0x1040
    2e12:	3304      	adds	r3, #4
    2e14:	f04f 7289 	mov.w	r2, #17956864	; 0x1120000
    2e18:	601a      	str	r2, [r3, #0]
D:\IntelligentVehicleProjects\K60_SmartCar_20160411\Debug/../03_MCU/sysint.c:54
                        |SIM_CLKDIV1_OUTDIV3(1)|SIM_CLKDIV1_OUTDIV4(2));    
                SystemCoreClock    = 72000000;
    2e1a:	4b95      	ldr	r3, [pc, #596]	; (3070 <SystemClockSetup+0x2d8>)
    2e1c:	4a96      	ldr	r2, [pc, #600]	; (3078 <SystemClockSetup+0x2e0>)
    2e1e:	601a      	str	r2, [r3, #0]
D:\IntelligentVehicleProjects\K60_SmartCar_20160411\Debug/../03_MCU/sysint.c:55
                break;
    2e20:	e025      	b.n	2e6e <SystemClockSetup+0xd6>
D:\IntelligentVehicleProjects\K60_SmartCar_20160411\Debug/../03_MCU/sysint.c:57
            case CoreClock_48M:
                MCG_C4|= (0<<6)|(1<<7)|(1<<5);  
    2e22:	4b90      	ldr	r3, [pc, #576]	; (3064 <SystemClockSetup+0x2cc>)
    2e24:	4a8f      	ldr	r2, [pc, #572]	; (3064 <SystemClockSetup+0x2cc>)
    2e26:	78d2      	ldrb	r2, [r2, #3]
    2e28:	b2d2      	uxtb	r2, r2
    2e2a:	f062 025f 	orn	r2, r2, #95	; 0x5f
    2e2e:	b2d2      	uxtb	r2, r2
    2e30:	70da      	strb	r2, [r3, #3]
D:\IntelligentVehicleProjects\K60_SmartCar_20160411\Debug/../03_MCU/sysint.c:58
                SIM_CLKDIV1 =(SIM_CLKDIV1_OUTDIV1(0)|SIM_CLKDIV1_OUTDIV2(0)
    2e32:	4b8d      	ldr	r3, [pc, #564]	; (3068 <SystemClockSetup+0x2d0>)
    2e34:	f503 5382 	add.w	r3, r3, #4160	; 0x1040
    2e38:	3304      	adds	r3, #4
    2e3a:	f44f 3280 	mov.w	r2, #65536	; 0x10000
    2e3e:	601a      	str	r2, [r3, #0]
D:\IntelligentVehicleProjects\K60_SmartCar_20160411\Debug/../03_MCU/sysint.c:60
                        |SIM_CLKDIV1_OUTDIV3(0)|SIM_CLKDIV1_OUTDIV4(1));    
                SystemCoreClock    = 48000000;
    2e40:	4b8b      	ldr	r3, [pc, #556]	; (3070 <SystemClockSetup+0x2d8>)
    2e42:	4a8e      	ldr	r2, [pc, #568]	; (307c <SystemClockSetup+0x2e4>)
    2e44:	601a      	str	r2, [r3, #0]
D:\IntelligentVehicleProjects\K60_SmartCar_20160411\Debug/../03_MCU/sysint.c:61
                break;
    2e46:	e012      	b.n	2e6e <SystemClockSetup+0xd6>
D:\IntelligentVehicleProjects\K60_SmartCar_20160411\Debug/../03_MCU/sysint.c:63
            default: //48M
                MCG_C4|= (0<<6)|(1<<7)|(1<<5);  
    2e48:	4b86      	ldr	r3, [pc, #536]	; (3064 <SystemClockSetup+0x2cc>)
    2e4a:	4a86      	ldr	r2, [pc, #536]	; (3064 <SystemClockSetup+0x2cc>)
    2e4c:	78d2      	ldrb	r2, [r2, #3]
    2e4e:	b2d2      	uxtb	r2, r2
    2e50:	f062 025f 	orn	r2, r2, #95	; 0x5f
    2e54:	b2d2      	uxtb	r2, r2
    2e56:	70da      	strb	r2, [r3, #3]
D:\IntelligentVehicleProjects\K60_SmartCar_20160411\Debug/../03_MCU/sysint.c:64
                SIM_CLKDIV1 =(SIM_CLKDIV1_OUTDIV1(0)|SIM_CLKDIV1_OUTDIV2(0)
    2e58:	4b83      	ldr	r3, [pc, #524]	; (3068 <SystemClockSetup+0x2d0>)
    2e5a:	f503 5382 	add.w	r3, r3, #4160	; 0x1040
    2e5e:	3304      	adds	r3, #4
    2e60:	f44f 3280 	mov.w	r2, #65536	; 0x10000
    2e64:	601a      	str	r2, [r3, #0]
D:\IntelligentVehicleProjects\K60_SmartCar_20160411\Debug/../03_MCU/sysint.c:66
                        |SIM_CLKDIV1_OUTDIV3(0)|SIM_CLKDIV1_OUTDIV4(1));    
                SystemCoreClock    = 48000000;
    2e66:	4b82      	ldr	r3, [pc, #520]	; (3070 <SystemClockSetup+0x2d8>)
    2e68:	4a84      	ldr	r2, [pc, #528]	; (307c <SystemClockSetup+0x2e4>)
    2e6a:	601a      	str	r2, [r3, #0]
D:\IntelligentVehicleProjects\K60_SmartCar_20160411\Debug/../03_MCU/sysint.c:67
                break;
    2e6c:	bf00      	nop
D:\IntelligentVehicleProjects\K60_SmartCar_20160411\Debug/../03_MCU/sysint.c:69
        }
        MCG_C5 = (uint8_t)0x00u;
    2e6e:	4b7d      	ldr	r3, [pc, #500]	; (3064 <SystemClockSetup+0x2cc>)
    2e70:	2200      	movs	r2, #0
    2e72:	711a      	strb	r2, [r3, #4]
D:\IntelligentVehicleProjects\K60_SmartCar_20160411\Debug/../03_MCU/sysint.c:70
        MCG_C6 = (uint8_t)0x00u;
    2e74:	4b7b      	ldr	r3, [pc, #492]	; (3064 <SystemClockSetup+0x2cc>)
    2e76:	2200      	movs	r2, #0
    2e78:	715a      	strb	r2, [r3, #5]
D:\IntelligentVehicleProjects\K60_SmartCar_20160411\Debug/../03_MCU/sysint.c:71
        while((MCG_S & MCG_S_IREFST_MASK) == 0u);  // FLL
    2e7a:	bf00      	nop
D:\IntelligentVehicleProjects\K60_SmartCar_20160411\Debug/../03_MCU/sysint.c:71 (discriminator 1)
    2e7c:	4b79      	ldr	r3, [pc, #484]	; (3064 <SystemClockSetup+0x2cc>)
    2e7e:	799b      	ldrb	r3, [r3, #6]
    2e80:	b2db      	uxtb	r3, r3
    2e82:	f003 0310 	and.w	r3, r3, #16
    2e86:	2b00      	cmp	r3, #0
    2e88:	d0f8      	beq.n	2e7c <SystemClockSetup+0xe4>
D:\IntelligentVehicleProjects\K60_SmartCar_20160411\Debug/../03_MCU/sysint.c:72
        while((MCG_S & 0x0Cu) != 0x00u);           //FLL
    2e8a:	bf00      	nop
D:\IntelligentVehicleProjects\K60_SmartCar_20160411\Debug/../03_MCU/sysint.c:72 (discriminator 1)
    2e8c:	4b75      	ldr	r3, [pc, #468]	; (3064 <SystemClockSetup+0x2cc>)
    2e8e:	799b      	ldrb	r3, [r3, #6]
    2e90:	b2db      	uxtb	r3, r3
    2e92:	f003 030c 	and.w	r3, r3, #12
    2e96:	2b00      	cmp	r3, #0
    2e98:	d1f8      	bne.n	2e8c <SystemClockSetup+0xf4>
D:\IntelligentVehicleProjects\K60_SmartCar_20160411\Debug/../03_MCU/sysint.c:74
    }
    if(ClockOption == ClockSource_EX4M || ClockOption == ClockSource_EX50M)
    2e9a:	79fb      	ldrb	r3, [r7, #7]
    2e9c:	2b06      	cmp	r3, #6
    2e9e:	d003      	beq.n	2ea8 <SystemClockSetup+0x110>
D:\IntelligentVehicleProjects\K60_SmartCar_20160411\Debug/../03_MCU/sysint.c:74 (discriminator 1)
    2ea0:	79fb      	ldrb	r3, [r7, #7]
    2ea2:	2b05      	cmp	r3, #5
    2ea4:	f040 815b 	bne.w	315e <SystemClockSetup+0x3c6>
D:\IntelligentVehicleProjects\K60_SmartCar_20160411\Debug/../03_MCU/sysint.c:76
    {
        SIM_SCGC5 |= (uint32_t)0x0200UL; // 
    2ea8:	496f      	ldr	r1, [pc, #444]	; (3068 <SystemClockSetup+0x2d0>)
    2eaa:	4b6f      	ldr	r3, [pc, #444]	; (3068 <SystemClockSetup+0x2d0>)
    2eac:	f503 5381 	add.w	r3, r3, #4128	; 0x1020
    2eb0:	3318      	adds	r3, #24
    2eb2:	681b      	ldr	r3, [r3, #0]
    2eb4:	f443 7200 	orr.w	r2, r3, #512	; 0x200
    2eb8:	f501 5381 	add.w	r3, r1, #4128	; 0x1020
    2ebc:	3318      	adds	r3, #24
    2ebe:	601a      	str	r2, [r3, #0]
D:\IntelligentVehicleProjects\K60_SmartCar_20160411\Debug/../03_MCU/sysint.c:77
        if ( *((uint8_t*) 0x03FFU) != 0xFFU) 
    2ec0:	f240 33ff 	movw	r3, #1023	; 0x3ff
    2ec4:	781b      	ldrb	r3, [r3, #0]
    2ec6:	2bff      	cmp	r3, #255	; 0xff
    2ec8:	d014      	beq.n	2ef4 <SystemClockSetup+0x15c>
D:\IntelligentVehicleProjects\K60_SmartCar_20160411\Debug/../03_MCU/sysint.c:79
        {
            MCG_C3 = *((uint8_t*) 0x03FFU);
    2eca:	4b66      	ldr	r3, [pc, #408]	; (3064 <SystemClockSetup+0x2cc>)
    2ecc:	f240 32ff 	movw	r2, #1023	; 0x3ff
    2ed0:	7812      	ldrb	r2, [r2, #0]
    2ed2:	709a      	strb	r2, [r3, #2]
D:\IntelligentVehicleProjects\K60_SmartCar_20160411\Debug/../03_MCU/sysint.c:80
            MCG_C4 = (MCG_C4 & 0xE0U) | ((*((uint8_t*) 0x03FEU)) & 0x1FU);
    2ed4:	4b63      	ldr	r3, [pc, #396]	; (3064 <SystemClockSetup+0x2cc>)
    2ed6:	4a63      	ldr	r2, [pc, #396]	; (3064 <SystemClockSetup+0x2cc>)
    2ed8:	78d2      	ldrb	r2, [r2, #3]
    2eda:	b2d2      	uxtb	r2, r2
    2edc:	f022 021f 	bic.w	r2, r2, #31
    2ee0:	b2d1      	uxtb	r1, r2
    2ee2:	f240 32fe 	movw	r2, #1022	; 0x3fe
    2ee6:	7812      	ldrb	r2, [r2, #0]
    2ee8:	f002 021f 	and.w	r2, r2, #31
    2eec:	b2d2      	uxtb	r2, r2
    2eee:	430a      	orrs	r2, r1
    2ef0:	b2d2      	uxtb	r2, r2
    2ef2:	70da      	strb	r2, [r3, #3]
D:\IntelligentVehicleProjects\K60_SmartCar_20160411\Debug/../03_MCU/sysint.c:82
        }
        SIM_CLKDIV1 = (uint32_t)0x01130000UL; // 
    2ef4:	4b5c      	ldr	r3, [pc, #368]	; (3068 <SystemClockSetup+0x2d0>)
    2ef6:	f503 5382 	add.w	r3, r3, #4160	; 0x1040
    2efa:	3304      	adds	r3, #4
    2efc:	4a5b      	ldr	r2, [pc, #364]	; (306c <SystemClockSetup+0x2d4>)
    2efe:	601a      	str	r2, [r3, #0]
D:\IntelligentVehicleProjects\K60_SmartCar_20160411\Debug/../03_MCU/sysint.c:83
        SIM_CLKDIV2 = (uint32_t)((SIM_CLKDIV2 & (uint32_t)~0x0DUL) 
    2f00:	4959      	ldr	r1, [pc, #356]	; (3068 <SystemClockSetup+0x2d0>)
    2f02:	4b59      	ldr	r3, [pc, #356]	; (3068 <SystemClockSetup+0x2d0>)
    2f04:	f503 5382 	add.w	r3, r3, #4160	; 0x1040
    2f08:	3308      	adds	r3, #8
    2f0a:	681b      	ldr	r3, [r3, #0]
    2f0c:	f023 030f 	bic.w	r3, r3, #15
    2f10:	f043 0202 	orr.w	r2, r3, #2
    2f14:	f501 5382 	add.w	r3, r1, #4160	; 0x1040
    2f18:	3308      	adds	r3, #8
    2f1a:	601a      	str	r2, [r3, #0]
D:\IntelligentVehicleProjects\K60_SmartCar_20160411\Debug/../03_MCU/sysint.c:85
                    | (uint32_t)0x02UL);      // USB
        SIM_SOPT2 |= (uint32_t)0x00010000UL;  // PLL
    2f1c:	4952      	ldr	r1, [pc, #328]	; (3068 <SystemClockSetup+0x2d0>)
    2f1e:	4b52      	ldr	r3, [pc, #328]	; (3068 <SystemClockSetup+0x2d0>)
    2f20:	f503 5380 	add.w	r3, r3, #4096	; 0x1000
    2f24:	3304      	adds	r3, #4
    2f26:	681b      	ldr	r3, [r3, #0]
    2f28:	f443 3280 	orr.w	r2, r3, #65536	; 0x10000
    2f2c:	f501 5380 	add.w	r3, r1, #4096	; 0x1000
    2f30:	3304      	adds	r3, #4
    2f32:	601a      	str	r2, [r3, #0]
D:\IntelligentVehicleProjects\K60_SmartCar_20160411\Debug/../03_MCU/sysint.c:86
        SIM_SOPT1 |= (uint32_t)0x00080000UL;  // 32kHz
    2f34:	4b4c      	ldr	r3, [pc, #304]	; (3068 <SystemClockSetup+0x2d0>)
    2f36:	4a4c      	ldr	r2, [pc, #304]	; (3068 <SystemClockSetup+0x2d0>)
    2f38:	6812      	ldr	r2, [r2, #0]
    2f3a:	f442 2200 	orr.w	r2, r2, #524288	; 0x80000
    2f3e:	601a      	str	r2, [r3, #0]
D:\IntelligentVehicleProjects\K60_SmartCar_20160411\Debug/../03_MCU/sysint.c:87
        PORTA_PCR18 &= (uint32_t)~0x01000700UL;
    2f40:	4a4f      	ldr	r2, [pc, #316]	; (3080 <SystemClockSetup+0x2e8>)
    2f42:	4b4f      	ldr	r3, [pc, #316]	; (3080 <SystemClockSetup+0x2e8>)
    2f44:	6c9b      	ldr	r3, [r3, #72]	; 0x48
    2f46:	f023 7380 	bic.w	r3, r3, #16777216	; 0x1000000
    2f4a:	f423 63e0 	bic.w	r3, r3, #1792	; 0x700
    2f4e:	6493      	str	r3, [r2, #72]	; 0x48
D:\IntelligentVehicleProjects\K60_SmartCar_20160411\Debug/../03_MCU/sysint.c:90
        
        // FEI  FBE  
        OSC_CR = (uint8_t)0x00u;
    2f50:	4b4c      	ldr	r3, [pc, #304]	; (3084 <SystemClockSetup+0x2ec>)
    2f52:	2200      	movs	r2, #0
    2f54:	701a      	strb	r2, [r3, #0]
D:\IntelligentVehicleProjects\K60_SmartCar_20160411\Debug/../03_MCU/sysint.c:91
        SIM_SOPT2 &= (uint8_t)~(uint8_t)0x01u;
    2f56:	4944      	ldr	r1, [pc, #272]	; (3068 <SystemClockSetup+0x2d0>)
    2f58:	4b43      	ldr	r3, [pc, #268]	; (3068 <SystemClockSetup+0x2d0>)
    2f5a:	f503 5380 	add.w	r3, r3, #4096	; 0x1000
    2f5e:	3304      	adds	r3, #4
    2f60:	681b      	ldr	r3, [r3, #0]
    2f62:	f003 02fe 	and.w	r2, r3, #254	; 0xfe
    2f66:	f501 5380 	add.w	r3, r1, #4096	; 0x1000
    2f6a:	3304      	adds	r3, #4
    2f6c:	601a      	str	r2, [r3, #0]
D:\IntelligentVehicleProjects\K60_SmartCar_20160411\Debug/../03_MCU/sysint.c:92
        MCG_C2 = (uint8_t)0x21u;    //
    2f6e:	4b3d      	ldr	r3, [pc, #244]	; (3064 <SystemClockSetup+0x2cc>)
    2f70:	2221      	movs	r2, #33	; 0x21
    2f72:	705a      	strb	r2, [r3, #1]
D:\IntelligentVehicleProjects\K60_SmartCar_20160411\Debug/../03_MCU/sysint.c:93
        MCG_C1 = (uint8_t)0xA8u;    //1024
    2f74:	4b3b      	ldr	r3, [pc, #236]	; (3064 <SystemClockSetup+0x2cc>)
    2f76:	22a8      	movs	r2, #168	; 0xa8
    2f78:	701a      	strb	r2, [r3, #0]
D:\IntelligentVehicleProjects\K60_SmartCar_20160411\Debug/../03_MCU/sysint.c:95

        while((MCG_S & MCG_S_IREFST_MASK) != 0u); // FLL
    2f7a:	bf00      	nop
D:\IntelligentVehicleProjects\K60_SmartCar_20160411\Debug/../03_MCU/sysint.c:95 (discriminator 1)
    2f7c:	4b39      	ldr	r3, [pc, #228]	; (3064 <SystemClockSetup+0x2cc>)
    2f7e:	799b      	ldrb	r3, [r3, #6]
    2f80:	b2db      	uxtb	r3, r3
    2f82:	f003 0310 	and.w	r3, r3, #16
    2f86:	2b00      	cmp	r3, #0
    2f88:	d1f8      	bne.n	2f7c <SystemClockSetup+0x1e4>
D:\IntelligentVehicleProjects\K60_SmartCar_20160411\Debug/../03_MCU/sysint.c:96
        while((MCG_S & 0x0Cu) != 0x08u);          //MCG
    2f8a:	bf00      	nop
D:\IntelligentVehicleProjects\K60_SmartCar_20160411\Debug/../03_MCU/sysint.c:96 (discriminator 1)
    2f8c:	4b35      	ldr	r3, [pc, #212]	; (3064 <SystemClockSetup+0x2cc>)
    2f8e:	799b      	ldrb	r3, [r3, #6]
    2f90:	b2db      	uxtb	r3, r3
    2f92:	f003 030c 	and.w	r3, r3, #12
    2f96:	2b08      	cmp	r3, #8
    2f98:	d1f8      	bne.n	2f8c <SystemClockSetup+0x1f4>
D:\IntelligentVehicleProjects\K60_SmartCar_20160411\Debug/../03_MCU/sysint.c:99
        
        //FBEPBE
        if(ClockOption == ClockSource_EX4M)
    2f9a:	79fb      	ldrb	r3, [r7, #7]
    2f9c:	2b06      	cmp	r3, #6
    2f9e:	d103      	bne.n	2fa8 <SystemClockSetup+0x210>
D:\IntelligentVehicleProjects\K60_SmartCar_20160411\Debug/../03_MCU/sysint.c:101
        {
            MCG_C5 = (uint8_t)(0x20|MCG_C5_PRDIV(1));        //4/2 = 2M
    2fa0:	4b30      	ldr	r3, [pc, #192]	; (3064 <SystemClockSetup+0x2cc>)
    2fa2:	2221      	movs	r2, #33	; 0x21
    2fa4:	711a      	strb	r2, [r3, #4]
    2fa6:	e005      	b.n	2fb4 <SystemClockSetup+0x21c>
D:\IntelligentVehicleProjects\K60_SmartCar_20160411\Debug/../03_MCU/sysint.c:103
        }
        else if (ClockOption == ClockSource_EX50M)
    2fa8:	79fb      	ldrb	r3, [r7, #7]
    2faa:	2b05      	cmp	r3, #5
    2fac:	d102      	bne.n	2fb4 <SystemClockSetup+0x21c>
D:\IntelligentVehicleProjects\K60_SmartCar_20160411\Debug/../03_MCU/sysint.c:105
        {
            MCG_C5 = (uint8_t)(0x20|MCG_C5_PRDIV(24));       //50/25 = 2M
    2fae:	4b2d      	ldr	r3, [pc, #180]	; (3064 <SystemClockSetup+0x2cc>)
    2fb0:	2238      	movs	r2, #56	; 0x38
    2fb2:	711a      	strb	r2, [r3, #4]
D:\IntelligentVehicleProjects\K60_SmartCar_20160411\Debug/../03_MCU/sysint.c:107
        }
        switch(CoreClock)
    2fb4:	88bb      	ldrh	r3, [r7, #4]
    2fb6:	3b08      	subs	r3, #8
    2fb8:	2b0b      	cmp	r3, #11
    2fba:	f200 8097 	bhi.w	30ec <SystemClockSetup+0x354>
    2fbe:	a201      	add	r2, pc, #4	; (adr r2, 2fc4 <SystemClockSetup+0x22c>)
    2fc0:	f852 f023 	ldr.w	pc, [r2, r3, lsl #2]
    2fc4:	00002ff5 	.word	0x00002ff5
    2fc8:	00003011 	.word	0x00003011
    2fcc:	000030ed 	.word	0x000030ed
    2fd0:	000030ed 	.word	0x000030ed
    2fd4:	000030ed 	.word	0x000030ed
    2fd8:	000030ed 	.word	0x000030ed
    2fdc:	000030ed 	.word	0x000030ed
    2fe0:	000030ed 	.word	0x000030ed
    2fe4:	0000302d 	.word	0x0000302d
    2fe8:	00003049 	.word	0x00003049
    2fec:	0000308d 	.word	0x0000308d
    2ff0:	000030a7 	.word	0x000030a7
D:\IntelligentVehicleProjects\K60_SmartCar_20160411\Debug/../03_MCU/sysint.c:110
        {
            case CoreClock_48M:
                MCG_C6 = (uint8_t)(0x40u|MCG_C6_VDIV(0));
    2ff4:	4b1b      	ldr	r3, [pc, #108]	; (3064 <SystemClockSetup+0x2cc>)
    2ff6:	2240      	movs	r2, #64	; 0x40
    2ff8:	715a      	strb	r2, [r3, #5]
D:\IntelligentVehicleProjects\K60_SmartCar_20160411\Debug/../03_MCU/sysint.c:111
                SIM_CLKDIV1 =(SIM_CLKDIV1_OUTDIV1(0)|SIM_CLKDIV1_OUTDIV2(0)
    2ffa:	4b1b      	ldr	r3, [pc, #108]	; (3068 <SystemClockSetup+0x2d0>)
    2ffc:	f503 5382 	add.w	r3, r3, #4160	; 0x1040
    3000:	3304      	adds	r3, #4
    3002:	f44f 3280 	mov.w	r2, #65536	; 0x10000
    3006:	601a      	str	r2, [r3, #0]
D:\IntelligentVehicleProjects\K60_SmartCar_20160411\Debug/../03_MCU/sysint.c:113
                        |SIM_CLKDIV1_OUTDIV3(0)|SIM_CLKDIV1_OUTDIV4(1));    
                SystemCoreClock    = 48000000;
    3008:	4b19      	ldr	r3, [pc, #100]	; (3070 <SystemClockSetup+0x2d8>)
    300a:	4a1c      	ldr	r2, [pc, #112]	; (307c <SystemClockSetup+0x2e4>)
    300c:	601a      	str	r2, [r3, #0]
D:\IntelligentVehicleProjects\K60_SmartCar_20160411\Debug/../03_MCU/sysint.c:114
                break;        
    300e:	e07b      	b.n	3108 <SystemClockSetup+0x370>
D:\IntelligentVehicleProjects\K60_SmartCar_20160411\Debug/../03_MCU/sysint.c:116
            case CoreClock_64M:
                MCG_C6 = (uint8_t)(0x40u|MCG_C6_VDIV(8));
    3010:	4b14      	ldr	r3, [pc, #80]	; (3064 <SystemClockSetup+0x2cc>)
    3012:	2248      	movs	r2, #72	; 0x48
    3014:	715a      	strb	r2, [r3, #5]
D:\IntelligentVehicleProjects\K60_SmartCar_20160411\Debug/../03_MCU/sysint.c:117
                SIM_CLKDIV1 =(SIM_CLKDIV1_OUTDIV1(0)|SIM_CLKDIV1_OUTDIV2(1)
    3016:	4b14      	ldr	r3, [pc, #80]	; (3068 <SystemClockSetup+0x2d0>)
    3018:	f503 5382 	add.w	r3, r3, #4160	; 0x1040
    301c:	3304      	adds	r3, #4
    301e:	f04f 7289 	mov.w	r2, #17956864	; 0x1120000
    3022:	601a      	str	r2, [r3, #0]
D:\IntelligentVehicleProjects\K60_SmartCar_20160411\Debug/../03_MCU/sysint.c:119
                        |SIM_CLKDIV1_OUTDIV3(1)|SIM_CLKDIV1_OUTDIV4(2));
                SystemCoreClock    = 64000000;
    3024:	4b12      	ldr	r3, [pc, #72]	; (3070 <SystemClockSetup+0x2d8>)
    3026:	4a18      	ldr	r2, [pc, #96]	; (3088 <SystemClockSetup+0x2f0>)
    3028:	601a      	str	r2, [r3, #0]
D:\IntelligentVehicleProjects\K60_SmartCar_20160411\Debug/../03_MCU/sysint.c:120
                break;        
    302a:	e06d      	b.n	3108 <SystemClockSetup+0x370>
D:\IntelligentVehicleProjects\K60_SmartCar_20160411\Debug/../03_MCU/sysint.c:122
            case CoreClock_72M:
                MCG_C6 = (uint8_t)(0x40u|MCG_C6_VDIV(12));
    302c:	4b0d      	ldr	r3, [pc, #52]	; (3064 <SystemClockSetup+0x2cc>)
    302e:	224c      	movs	r2, #76	; 0x4c
    3030:	715a      	strb	r2, [r3, #5]
D:\IntelligentVehicleProjects\K60_SmartCar_20160411\Debug/../03_MCU/sysint.c:123
                SIM_CLKDIV1 =(SIM_CLKDIV1_OUTDIV1(0)|SIM_CLKDIV1_OUTDIV2(1)
    3032:	4b0d      	ldr	r3, [pc, #52]	; (3068 <SystemClockSetup+0x2d0>)
    3034:	f503 5382 	add.w	r3, r3, #4160	; 0x1040
    3038:	3304      	adds	r3, #4
    303a:	f04f 7289 	mov.w	r2, #17956864	; 0x1120000
    303e:	601a      	str	r2, [r3, #0]
D:\IntelligentVehicleProjects\K60_SmartCar_20160411\Debug/../03_MCU/sysint.c:125
                        |SIM_CLKDIV1_OUTDIV3(1)|SIM_CLKDIV1_OUTDIV4(2));
                SystemCoreClock    = 72000000;
    3040:	4b0b      	ldr	r3, [pc, #44]	; (3070 <SystemClockSetup+0x2d8>)
    3042:	4a0d      	ldr	r2, [pc, #52]	; (3078 <SystemClockSetup+0x2e0>)
    3044:	601a      	str	r2, [r3, #0]
D:\IntelligentVehicleProjects\K60_SmartCar_20160411\Debug/../03_MCU/sysint.c:126
                break;            
    3046:	e05f      	b.n	3108 <SystemClockSetup+0x370>
D:\IntelligentVehicleProjects\K60_SmartCar_20160411\Debug/../03_MCU/sysint.c:128
            case CoreClock_96M:
                MCG_C6 = (uint8_t)(0x40u|MCG_C6_VDIV(24));
    3048:	4b06      	ldr	r3, [pc, #24]	; (3064 <SystemClockSetup+0x2cc>)
    304a:	2258      	movs	r2, #88	; 0x58
    304c:	715a      	strb	r2, [r3, #5]
D:\IntelligentVehicleProjects\K60_SmartCar_20160411\Debug/../03_MCU/sysint.c:129
                SIM_CLKDIV1 =(SIM_CLKDIV1_OUTDIV1(0)|SIM_CLKDIV1_OUTDIV2(1)
    304e:	4b06      	ldr	r3, [pc, #24]	; (3068 <SystemClockSetup+0x2d0>)
    3050:	f503 5382 	add.w	r3, r3, #4160	; 0x1040
    3054:	3304      	adds	r3, #4
    3056:	4a05      	ldr	r2, [pc, #20]	; (306c <SystemClockSetup+0x2d4>)
    3058:	601a      	str	r2, [r3, #0]
D:\IntelligentVehicleProjects\K60_SmartCar_20160411\Debug/../03_MCU/sysint.c:131
                        |SIM_CLKDIV1_OUTDIV3(1)|SIM_CLKDIV1_OUTDIV4(3));        
                SystemCoreClock    = 96000000;
    305a:	4b05      	ldr	r3, [pc, #20]	; (3070 <SystemClockSetup+0x2d8>)
    305c:	4a05      	ldr	r2, [pc, #20]	; (3074 <SystemClockSetup+0x2dc>)
    305e:	601a      	str	r2, [r3, #0]
D:\IntelligentVehicleProjects\K60_SmartCar_20160411\Debug/../03_MCU/sysint.c:132
                break;        
    3060:	e052      	b.n	3108 <SystemClockSetup+0x370>
    3062:	bf00      	nop
    3064:	40064000 	.word	0x40064000
    3068:	40047000 	.word	0x40047000
    306c:	01130000 	.word	0x01130000
    3070:	1fff0160 	.word	0x1fff0160
    3074:	05b8d800 	.word	0x05b8d800
    3078:	044aa200 	.word	0x044aa200
    307c:	02dc6c00 	.word	0x02dc6c00
    3080:	40049000 	.word	0x40049000
    3084:	40065000 	.word	0x40065000
    3088:	03d09000 	.word	0x03d09000
D:\IntelligentVehicleProjects\K60_SmartCar_20160411\Debug/../03_MCU/sysint.c:134
            case CoreClock_100M:
                MCG_C6 = (uint8_t)(0x40u|MCG_C6_VDIV(26));
    308c:	4b36      	ldr	r3, [pc, #216]	; (3168 <SystemClockSetup+0x3d0>)
    308e:	225a      	movs	r2, #90	; 0x5a
    3090:	715a      	strb	r2, [r3, #5]
D:\IntelligentVehicleProjects\K60_SmartCar_20160411\Debug/../03_MCU/sysint.c:135
                SIM_CLKDIV1 =(SIM_CLKDIV1_OUTDIV1(0)|SIM_CLKDIV1_OUTDIV2(1)
    3092:	4b36      	ldr	r3, [pc, #216]	; (316c <SystemClockSetup+0x3d4>)
    3094:	f503 5382 	add.w	r3, r3, #4160	; 0x1040
    3098:	3304      	adds	r3, #4
    309a:	4a35      	ldr	r2, [pc, #212]	; (3170 <SystemClockSetup+0x3d8>)
    309c:	601a      	str	r2, [r3, #0]
D:\IntelligentVehicleProjects\K60_SmartCar_20160411\Debug/../03_MCU/sysint.c:137
                        |SIM_CLKDIV1_OUTDIV3(1)|SIM_CLKDIV1_OUTDIV4(3));    
                SystemCoreClock    = 100000000;
    309e:	4b35      	ldr	r3, [pc, #212]	; (3174 <SystemClockSetup+0x3dc>)
    30a0:	4a35      	ldr	r2, [pc, #212]	; (3178 <SystemClockSetup+0x3e0>)
    30a2:	601a      	str	r2, [r3, #0]
D:\IntelligentVehicleProjects\K60_SmartCar_20160411\Debug/../03_MCU/sysint.c:138
                break;    
    30a4:	e030      	b.n	3108 <SystemClockSetup+0x370>
D:\IntelligentVehicleProjects\K60_SmartCar_20160411\Debug/../03_MCU/sysint.c:140
            case CoreClock_200M:
                if(ClockOption == ClockSource_EX4M)
    30a6:	79fb      	ldrb	r3, [r7, #7]
    30a8:	2b06      	cmp	r3, #6
    30aa:	d10c      	bne.n	30c6 <SystemClockSetup+0x32e>
D:\IntelligentVehicleProjects\K60_SmartCar_20160411\Debug/../03_MCU/sysint.c:142
                {
                    MCG_C5 = (uint8_t)MCG_C5_PRDIV(0);        //4/1 = 4M
    30ac:	4b2e      	ldr	r3, [pc, #184]	; (3168 <SystemClockSetup+0x3d0>)
    30ae:	2200      	movs	r2, #0
    30b0:	711a      	strb	r2, [r3, #4]
D:\IntelligentVehicleProjects\K60_SmartCar_20160411\Debug/../03_MCU/sysint.c:143
                    MCG_C6 = (uint8_t)(0x40u|MCG_C6_VDIV(26));
    30b2:	4b2d      	ldr	r3, [pc, #180]	; (3168 <SystemClockSetup+0x3d0>)
    30b4:	225a      	movs	r2, #90	; 0x5a
    30b6:	715a      	strb	r2, [r3, #5]
D:\IntelligentVehicleProjects\K60_SmartCar_20160411\Debug/../03_MCU/sysint.c:144
                    SIM_CLKDIV1 =(SIM_CLKDIV1_OUTDIV1(0)|SIM_CLKDIV1_OUTDIV2(1)
    30b8:	4b2c      	ldr	r3, [pc, #176]	; (316c <SystemClockSetup+0x3d4>)
    30ba:	f503 5382 	add.w	r3, r3, #4160	; 0x1040
    30be:	3304      	adds	r3, #4
    30c0:	4a2e      	ldr	r2, [pc, #184]	; (317c <SystemClockSetup+0x3e4>)
    30c2:	601a      	str	r2, [r3, #0]
    30c4:	e00e      	b.n	30e4 <SystemClockSetup+0x34c>
D:\IntelligentVehicleProjects\K60_SmartCar_20160411\Debug/../03_MCU/sysint.c:147
                            |SIM_CLKDIV1_OUTDIV3(1)|SIM_CLKDIV1_OUTDIV4(7));    
                }
                else if (ClockOption == ClockSource_EX50M)
    30c6:	79fb      	ldrb	r3, [r7, #7]
    30c8:	2b05      	cmp	r3, #5
    30ca:	d10b      	bne.n	30e4 <SystemClockSetup+0x34c>
D:\IntelligentVehicleProjects\K60_SmartCar_20160411\Debug/../03_MCU/sysint.c:149
                {
                    MCG_C5 = (uint8_t)MCG_C5_PRDIV(12);
    30cc:	4b26      	ldr	r3, [pc, #152]	; (3168 <SystemClockSetup+0x3d0>)
    30ce:	220c      	movs	r2, #12
    30d0:	711a      	strb	r2, [r3, #4]
D:\IntelligentVehicleProjects\K60_SmartCar_20160411\Debug/../03_MCU/sysint.c:150
                    MCG_C6 = (uint8_t)(0x40u|MCG_C6_VDIV(28));
    30d2:	4b25      	ldr	r3, [pc, #148]	; (3168 <SystemClockSetup+0x3d0>)
    30d4:	225c      	movs	r2, #92	; 0x5c
    30d6:	715a      	strb	r2, [r3, #5]
D:\IntelligentVehicleProjects\K60_SmartCar_20160411\Debug/../03_MCU/sysint.c:151
                    SIM_CLKDIV1 =(SIM_CLKDIV1_OUTDIV1(0)|SIM_CLKDIV1_OUTDIV2(1)
    30d8:	4b24      	ldr	r3, [pc, #144]	; (316c <SystemClockSetup+0x3d4>)
    30da:	f503 5382 	add.w	r3, r3, #4160	; 0x1040
    30de:	3304      	adds	r3, #4
    30e0:	4a26      	ldr	r2, [pc, #152]	; (317c <SystemClockSetup+0x3e4>)
    30e2:	601a      	str	r2, [r3, #0]
D:\IntelligentVehicleProjects\K60_SmartCar_20160411\Debug/../03_MCU/sysint.c:154
                            |SIM_CLKDIV1_OUTDIV3(1)|SIM_CLKDIV1_OUTDIV4(7));    
                }
                SystemCoreClock    = 200000000;
    30e4:	4b23      	ldr	r3, [pc, #140]	; (3174 <SystemClockSetup+0x3dc>)
    30e6:	4a26      	ldr	r2, [pc, #152]	; (3180 <SystemClockSetup+0x3e8>)
    30e8:	601a      	str	r2, [r3, #0]
D:\IntelligentVehicleProjects\K60_SmartCar_20160411\Debug/../03_MCU/sysint.c:155
                break;            
    30ea:	e00d      	b.n	3108 <SystemClockSetup+0x370>
D:\IntelligentVehicleProjects\K60_SmartCar_20160411\Debug/../03_MCU/sysint.c:157
            default:
                MCG_C6 = (uint8_t)(0x40u|MCG_C6_VDIV(0));
    30ec:	4b1e      	ldr	r3, [pc, #120]	; (3168 <SystemClockSetup+0x3d0>)
    30ee:	2240      	movs	r2, #64	; 0x40
    30f0:	715a      	strb	r2, [r3, #5]
D:\IntelligentVehicleProjects\K60_SmartCar_20160411\Debug/../03_MCU/sysint.c:158
                SIM_CLKDIV1 =(SIM_CLKDIV1_OUTDIV1(0)|SIM_CLKDIV1_OUTDIV2(0)
    30f2:	4b1e      	ldr	r3, [pc, #120]	; (316c <SystemClockSetup+0x3d4>)
    30f4:	f503 5382 	add.w	r3, r3, #4160	; 0x1040
    30f8:	3304      	adds	r3, #4
    30fa:	f44f 3280 	mov.w	r2, #65536	; 0x10000
    30fe:	601a      	str	r2, [r3, #0]
D:\IntelligentVehicleProjects\K60_SmartCar_20160411\Debug/../03_MCU/sysint.c:160
                        |SIM_CLKDIV1_OUTDIV3(0)|SIM_CLKDIV1_OUTDIV4(1));
                SystemCoreClock    = 48000000;
    3100:	4b1c      	ldr	r3, [pc, #112]	; (3174 <SystemClockSetup+0x3dc>)
    3102:	4a20      	ldr	r2, [pc, #128]	; (3184 <SystemClockSetup+0x3ec>)
    3104:	601a      	str	r2, [r3, #0]
D:\IntelligentVehicleProjects\K60_SmartCar_20160411\Debug/../03_MCU/sysint.c:161
                break;
    3106:	bf00      	nop
D:\IntelligentVehicleProjects\K60_SmartCar_20160411\Debug/../03_MCU/sysint.c:163
        } 
        while((MCG_S & 0x0Cu) != 0x08u);           //MCG    
    3108:	bf00      	nop
D:\IntelligentVehicleProjects\K60_SmartCar_20160411\Debug/../03_MCU/sysint.c:163 (discriminator 1)
    310a:	4b17      	ldr	r3, [pc, #92]	; (3168 <SystemClockSetup+0x3d0>)
    310c:	799b      	ldrb	r3, [r3, #6]
    310e:	b2db      	uxtb	r3, r3
    3110:	f003 030c 	and.w	r3, r3, #12
    3114:	2b08      	cmp	r3, #8
    3116:	d1f8      	bne.n	310a <SystemClockSetup+0x372>
D:\IntelligentVehicleProjects\K60_SmartCar_20160411\Debug/../03_MCU/sysint.c:164
        while((MCG_S & MCG_S_LOCK_MASK) == 0u);    //
    3118:	bf00      	nop
D:\IntelligentVehicleProjects\K60_SmartCar_20160411\Debug/../03_MCU/sysint.c:164 (discriminator 1)
    311a:	4b13      	ldr	r3, [pc, #76]	; (3168 <SystemClockSetup+0x3d0>)
    311c:	799b      	ldrb	r3, [r3, #6]
    311e:	b2db      	uxtb	r3, r3
    3120:	f003 0340 	and.w	r3, r3, #64	; 0x40
    3124:	2b00      	cmp	r3, #0
    3126:	d0f8      	beq.n	311a <SystemClockSetup+0x382>
D:\IntelligentVehicleProjects\K60_SmartCar_20160411\Debug/../03_MCU/sysint.c:167
        
        //PEE
        MCG_C1 = (uint8_t)0x28u;                   //PLL
    3128:	4b0f      	ldr	r3, [pc, #60]	; (3168 <SystemClockSetup+0x3d0>)
    312a:	2228      	movs	r2, #40	; 0x28
    312c:	701a      	strb	r2, [r3, #0]
D:\IntelligentVehicleProjects\K60_SmartCar_20160411\Debug/../03_MCU/sysint.c:168
        while((MCG_S & 0x0Cu) != 0x0Cu);           //PLL
    312e:	bf00      	nop
D:\IntelligentVehicleProjects\K60_SmartCar_20160411\Debug/../03_MCU/sysint.c:168 (discriminator 1)
    3130:	4b0d      	ldr	r3, [pc, #52]	; (3168 <SystemClockSetup+0x3d0>)
    3132:	799b      	ldrb	r3, [r3, #6]
    3134:	b2db      	uxtb	r3, r3
    3136:	f003 030c 	and.w	r3, r3, #12
    313a:	2b0c      	cmp	r3, #12
    313c:	d1f8      	bne.n	3130 <SystemClockSetup+0x398>
D:\IntelligentVehicleProjects\K60_SmartCar_20160411\Debug/../03_MCU/sysint.c:169
        while((MCG_S & MCG_S_LOCK_MASK) == 0u);    //PLL
    313e:	bf00      	nop
D:\IntelligentVehicleProjects\K60_SmartCar_20160411\Debug/../03_MCU/sysint.c:169 (discriminator 1)
    3140:	4b09      	ldr	r3, [pc, #36]	; (3168 <SystemClockSetup+0x3d0>)
    3142:	799b      	ldrb	r3, [r3, #6]
    3144:	b2db      	uxtb	r3, r3
    3146:	f003 0340 	and.w	r3, r3, #64	; 0x40
    314a:	2b00      	cmp	r3, #0
    314c:	d0f8      	beq.n	3140 <SystemClockSetup+0x3a8>
D:\IntelligentVehicleProjects\K60_SmartCar_20160411\Debug/../03_MCU/sysint.c:170
        MCG_C6 |= (uint8_t)0x20U; // 
    314e:	4b06      	ldr	r3, [pc, #24]	; (3168 <SystemClockSetup+0x3d0>)
    3150:	4a05      	ldr	r2, [pc, #20]	; (3168 <SystemClockSetup+0x3d0>)
    3152:	7952      	ldrb	r2, [r2, #5]
    3154:	b2d2      	uxtb	r2, r2
    3156:	f042 0220 	orr.w	r2, r2, #32
    315a:	b2d2      	uxtb	r2, r2
    315c:	715a      	strb	r2, [r3, #5]
D:\IntelligentVehicleProjects\K60_SmartCar_20160411\Debug/../03_MCU/sysint.c:172
    }
}
    315e:	370c      	adds	r7, #12
    3160:	46bd      	mov	sp, r7
    3162:	f85d 7b04 	ldr.w	r7, [sp], #4
    3166:	4770      	bx	lr
    3168:	40064000 	.word	0x40064000
    316c:	40047000 	.word	0x40047000
    3170:	01130000 	.word	0x01130000
    3174:	1fff0160 	.word	0x1fff0160
    3178:	05f5e100 	.word	0x05f5e100
    317c:	01170000 	.word	0x01170000
    3180:	0bebc200 	.word	0x0bebc200
    3184:	02dc6c00 	.word	0x02dc6c00

00003188 <default_isr>:
default_isr():
H:\Elec_Team_gexinyue_16_03_07\04-software\K60_SmartCar_20160406\Debug/../03_MCU/vectors.c:162
    3188:	b480      	push	{r7}
    318a:	af00      	add	r7, sp, #0
H:\Elec_Team_gexinyue_16_03_07\04-software\K60_SmartCar_20160406\Debug/../03_MCU/vectors.c:164
    318c:	46bd      	mov	sp, r7
    318e:	f85d 7b04 	ldr.w	r7, [sp], #4
    3192:	4770      	bx	lr

00003194 <enable_irq>:
enable_irq():
D:\IntelligentVehicleProjects\K60_SmartCar_20160411\Debug/../02_CPU/arm_cm4.c:58
//  
//irqirq
//irq 
//============================================================================
void enable_irq (uint_16_t irq)
{
    3194:	b480      	push	{r7}
    3196:	b085      	sub	sp, #20
    3198:	af00      	add	r7, sp, #0
    319a:	4603      	mov	r3, r0
    319c:	80fb      	strh	r3, [r7, #6]
D:\IntelligentVehicleProjects\K60_SmartCar_20160411\Debug/../02_CPU/arm_cm4.c:62
    uint_16_t div;

    //irqirq
    if (irq > 91)	irq=91;
    319e:	88fb      	ldrh	r3, [r7, #6]
    31a0:	2b5b      	cmp	r3, #91	; 0x5b
    31a2:	d901      	bls.n	31a8 <enable_irq+0x14>
D:\IntelligentVehicleProjects\K60_SmartCar_20160411\Debug/../02_CPU/arm_cm4.c:62 (discriminator 1)
    31a4:	235b      	movs	r3, #91	; 0x5b
    31a6:	80fb      	strh	r3, [r7, #6]
D:\IntelligentVehicleProjects\K60_SmartCar_20160411\Debug/../02_CPU/arm_cm4.c:65
    
    //NVICISER
    div = irq/32;
    31a8:	88fb      	ldrh	r3, [r7, #6]
    31aa:	095b      	lsrs	r3, r3, #5
    31ac:	81fb      	strh	r3, [r7, #14]
D:\IntelligentVehicleProjects\K60_SmartCar_20160411\Debug/../02_CPU/arm_cm4.c:67

    switch (div)
    31ae:	89fb      	ldrh	r3, [r7, #14]
    31b0:	2b01      	cmp	r3, #1
    31b2:	d016      	beq.n	31e2 <enable_irq+0x4e>
    31b4:	2b02      	cmp	r3, #2
    31b6:	d026      	beq.n	3206 <enable_irq+0x72>
    31b8:	2b00      	cmp	r3, #0
    31ba:	d000      	beq.n	31be <enable_irq+0x2a>
D:\IntelligentVehicleProjects\K60_SmartCar_20160411\Debug/../02_CPU/arm_cm4.c:82
    	case 0x2:
            NVICICPR2 = 1 << (irq%32);
            NVICISER2 = 1 << (irq%32);
            break;
    	default:
    		break;
    31bc:	e035      	b.n	322a <enable_irq+0x96>
D:\IntelligentVehicleProjects\K60_SmartCar_20160411\Debug/../02_CPU/arm_cm4.c:70
    div = irq/32;

    switch (div)
    {
    	case 0x0:
            NVICICPR0 = 1 << (irq%32);
    31be:	4b1d      	ldr	r3, [pc, #116]	; (3234 <enable_irq+0xa0>)
    31c0:	88fa      	ldrh	r2, [r7, #6]
    31c2:	f002 021f 	and.w	r2, r2, #31
    31c6:	2101      	movs	r1, #1
    31c8:	fa01 f202 	lsl.w	r2, r1, r2
    31cc:	f8c3 2180 	str.w	r2, [r3, #384]	; 0x180
D:\IntelligentVehicleProjects\K60_SmartCar_20160411\Debug/../02_CPU/arm_cm4.c:71
            NVICISER0 = 1 << (irq%32);
    31d0:	4b18      	ldr	r3, [pc, #96]	; (3234 <enable_irq+0xa0>)
    31d2:	88fa      	ldrh	r2, [r7, #6]
    31d4:	f002 021f 	and.w	r2, r2, #31
    31d8:	2101      	movs	r1, #1
    31da:	fa01 f202 	lsl.w	r2, r1, r2
    31de:	601a      	str	r2, [r3, #0]
D:\IntelligentVehicleProjects\K60_SmartCar_20160411\Debug/../02_CPU/arm_cm4.c:72
            break;
    31e0:	e023      	b.n	322a <enable_irq+0x96>
D:\IntelligentVehicleProjects\K60_SmartCar_20160411\Debug/../02_CPU/arm_cm4.c:74
    	case 0x1:
            NVICICPR1 = 1 << (irq%32);
    31e2:	4b14      	ldr	r3, [pc, #80]	; (3234 <enable_irq+0xa0>)
    31e4:	88fa      	ldrh	r2, [r7, #6]
    31e6:	f002 021f 	and.w	r2, r2, #31
    31ea:	2101      	movs	r1, #1
    31ec:	fa01 f202 	lsl.w	r2, r1, r2
    31f0:	f8c3 2184 	str.w	r2, [r3, #388]	; 0x184
D:\IntelligentVehicleProjects\K60_SmartCar_20160411\Debug/../02_CPU/arm_cm4.c:75
            NVICISER1 = 1 << (irq%32);
    31f4:	4b0f      	ldr	r3, [pc, #60]	; (3234 <enable_irq+0xa0>)
    31f6:	88fa      	ldrh	r2, [r7, #6]
    31f8:	f002 021f 	and.w	r2, r2, #31
    31fc:	2101      	movs	r1, #1
    31fe:	fa01 f202 	lsl.w	r2, r1, r2
    3202:	605a      	str	r2, [r3, #4]
D:\IntelligentVehicleProjects\K60_SmartCar_20160411\Debug/../02_CPU/arm_cm4.c:76
            break;
    3204:	e011      	b.n	322a <enable_irq+0x96>
D:\IntelligentVehicleProjects\K60_SmartCar_20160411\Debug/../02_CPU/arm_cm4.c:78
    	case 0x2:
            NVICICPR2 = 1 << (irq%32);
    3206:	4b0b      	ldr	r3, [pc, #44]	; (3234 <enable_irq+0xa0>)
    3208:	88fa      	ldrh	r2, [r7, #6]
    320a:	f002 021f 	and.w	r2, r2, #31
    320e:	2101      	movs	r1, #1
    3210:	fa01 f202 	lsl.w	r2, r1, r2
    3214:	f8c3 2188 	str.w	r2, [r3, #392]	; 0x188
D:\IntelligentVehicleProjects\K60_SmartCar_20160411\Debug/../02_CPU/arm_cm4.c:79
            NVICISER2 = 1 << (irq%32);
    3218:	4b06      	ldr	r3, [pc, #24]	; (3234 <enable_irq+0xa0>)
    321a:	88fa      	ldrh	r2, [r7, #6]
    321c:	f002 021f 	and.w	r2, r2, #31
    3220:	2101      	movs	r1, #1
    3222:	fa01 f202 	lsl.w	r2, r1, r2
    3226:	609a      	str	r2, [r3, #8]
D:\IntelligentVehicleProjects\K60_SmartCar_20160411\Debug/../02_CPU/arm_cm4.c:80
            break;
    3228:	bf00      	nop
D:\IntelligentVehicleProjects\K60_SmartCar_20160411\Debug/../02_CPU/arm_cm4.c:84
    	default:
    		break;
    }              
}
    322a:	3714      	adds	r7, #20
    322c:	46bd      	mov	sp, r7
    322e:	f85d 7b04 	ldr.w	r7, [sp], #4
    3232:	4770      	bx	lr
    3234:	e000e100 	.word	0xe000e100

00003238 <asin>:
asin():
    3238:	e92d 41f0 	stmdb	sp!, {r4, r5, r6, r7, r8, lr}
    323c:	f8df 809c 	ldr.w	r8, [pc, #156]	; 32dc <asin+0xa4>
    3240:	b08a      	sub	sp, #40	; 0x28
    3242:	4604      	mov	r4, r0
    3244:	460d      	mov	r5, r1
    3246:	f000 f84b 	bl	32e0 <__ieee754_asin>
    324a:	f998 3000 	ldrsb.w	r3, [r8]
    324e:	3301      	adds	r3, #1
    3250:	4606      	mov	r6, r0
    3252:	460f      	mov	r7, r1
    3254:	d004      	beq.n	3260 <asin+0x28>
    3256:	4620      	mov	r0, r4
    3258:	4629      	mov	r1, r5
    325a:	f000 fb3d 	bl	38d8 <__fpclassifyd>
    325e:	b920      	cbnz	r0, 326a <asin+0x32>
    3260:	4630      	mov	r0, r6
    3262:	4639      	mov	r1, r7
    3264:	b00a      	add	sp, #40	; 0x28
    3266:	e8bd 81f0 	ldmia.w	sp!, {r4, r5, r6, r7, r8, pc}
    326a:	4620      	mov	r0, r4
    326c:	4629      	mov	r1, r5
    326e:	f000 fb2f 	bl	38d0 <fabs>
    3272:	2200      	movs	r2, #0
    3274:	4b16      	ldr	r3, [pc, #88]	; (32d0 <asin+0x98>)
    3276:	f7fe fa07 	bl	1688 <__aeabi_dcmpgt>
    327a:	2800      	cmp	r0, #0
    327c:	d0f0      	beq.n	3260 <asin+0x28>
    327e:	2301      	movs	r3, #1
    3280:	4a14      	ldr	r2, [pc, #80]	; (32d4 <asin+0x9c>)
    3282:	9300      	str	r3, [sp, #0]
    3284:	4814      	ldr	r0, [pc, #80]	; (32d8 <asin+0xa0>)
    3286:	9201      	str	r2, [sp, #4]
    3288:	2300      	movs	r3, #0
    328a:	9308      	str	r3, [sp, #32]
    328c:	e9cd 4504 	strd	r4, r5, [sp, #16]
    3290:	e9cd 4502 	strd	r4, r5, [sp, #8]
    3294:	f000 fb4a 	bl	392c <nan>
    3298:	f998 3000 	ldrsb.w	r3, [r8]
    329c:	2b02      	cmp	r3, #2
    329e:	e9cd 0106 	strd	r0, r1, [sp, #24]
    32a2:	d00a      	beq.n	32ba <asin+0x82>
    32a4:	4668      	mov	r0, sp
    32a6:	f000 fb3f 	bl	3928 <matherr>
    32aa:	b130      	cbz	r0, 32ba <asin+0x82>
    32ac:	9b08      	ldr	r3, [sp, #32]
    32ae:	b94b      	cbnz	r3, 32c4 <asin+0x8c>
    32b0:	e9dd 0106 	ldrd	r0, r1, [sp, #24]
    32b4:	b00a      	add	sp, #40	; 0x28
    32b6:	e8bd 81f0 	ldmia.w	sp!, {r4, r5, r6, r7, r8, pc}
    32ba:	f000 fb3d 	bl	3938 <__errno>
    32be:	2321      	movs	r3, #33	; 0x21
    32c0:	6003      	str	r3, [r0, #0]
    32c2:	e7f3      	b.n	32ac <asin+0x74>
    32c4:	f000 fb38 	bl	3938 <__errno>
    32c8:	9b08      	ldr	r3, [sp, #32]
    32ca:	6003      	str	r3, [r0, #0]
    32cc:	e7f0      	b.n	32b0 <asin+0x78>
    32ce:	bf00      	nop
    32d0:	3ff00000 	.word	0x3ff00000
    32d4:	000039c8 	.word	0x000039c8
    32d8:	000039cc 	.word	0x000039cc
    32dc:	1fff0024 	.word	0x1fff0024

000032e0 <__ieee754_asin>:
__ieee754_asin():
    32e0:	e92d 4ff0 	stmdb	sp!, {r4, r5, r6, r7, r8, r9, sl, fp, lr}
    32e4:	4bae      	ldr	r3, [pc, #696]	; (35a0 <__ieee754_asin+0x2c0>)
    32e6:	f021 4800 	bic.w	r8, r1, #2147483648	; 0x80000000
    32ea:	4598      	cmp	r8, r3
    32ec:	b087      	sub	sp, #28
    32ee:	4604      	mov	r4, r0
    32f0:	460d      	mov	r5, r1
    32f2:	460f      	mov	r7, r1
    32f4:	dd11      	ble.n	331a <__ieee754_asin+0x3a>
    32f6:	f108 4840 	add.w	r8, r8, #3221225472	; 0xc0000000
    32fa:	f508 1880 	add.w	r8, r8, #1048576	; 0x100000
    32fe:	ea58 0800 	orrs.w	r8, r8, r0
    3302:	d020      	beq.n	3346 <__ieee754_asin+0x66>
    3304:	4602      	mov	r2, r0
    3306:	460b      	mov	r3, r1
    3308:	f7fd fa7e 	bl	808 <__aeabi_dsub>
    330c:	4602      	mov	r2, r0
    330e:	460b      	mov	r3, r1
    3310:	f7fd fd58 	bl	dc4 <__aeabi_ddiv>
    3314:	b007      	add	sp, #28
    3316:	e8bd 8ff0 	ldmia.w	sp!, {r4, r5, r6, r7, r8, r9, sl, fp, pc}
    331a:	4ba2      	ldr	r3, [pc, #648]	; (35a4 <__ieee754_asin+0x2c4>)
    331c:	4598      	cmp	r8, r3
    331e:	dc29      	bgt.n	3374 <__ieee754_asin+0x94>
    3320:	f1b8 5f79 	cmp.w	r8, #1044381696	; 0x3e400000
    3324:	f280 8169 	bge.w	35fa <__ieee754_asin+0x31a>
    3328:	a381      	add	r3, pc, #516	; (adr r3, 3530 <__ieee754_asin+0x250>)
    332a:	e9d3 2300 	ldrd	r2, r3, [r3]
    332e:	f7fd fa6d 	bl	80c <__adddf3>
    3332:	2200      	movs	r2, #0
    3334:	4b9c      	ldr	r3, [pc, #624]	; (35a8 <__ieee754_asin+0x2c8>)
    3336:	f7fe f9a7 	bl	1688 <__aeabi_dcmpgt>
    333a:	b1d8      	cbz	r0, 3374 <__ieee754_asin+0x94>
    333c:	4620      	mov	r0, r4
    333e:	4629      	mov	r1, r5
    3340:	b007      	add	sp, #28
    3342:	e8bd 8ff0 	ldmia.w	sp!, {r4, r5, r6, r7, r8, r9, sl, fp, pc}
    3346:	a37c      	add	r3, pc, #496	; (adr r3, 3538 <__ieee754_asin+0x258>)
    3348:	e9d3 2300 	ldrd	r2, r3, [r3]
    334c:	f7fd fc10 	bl	b70 <__aeabi_dmul>
    3350:	a37b      	add	r3, pc, #492	; (adr r3, 3540 <__ieee754_asin+0x260>)
    3352:	e9d3 2300 	ldrd	r2, r3, [r3]
    3356:	4606      	mov	r6, r0
    3358:	460f      	mov	r7, r1
    335a:	4620      	mov	r0, r4
    335c:	4629      	mov	r1, r5
    335e:	f7fd fc07 	bl	b70 <__aeabi_dmul>
    3362:	4602      	mov	r2, r0
    3364:	460b      	mov	r3, r1
    3366:	4630      	mov	r0, r6
    3368:	4639      	mov	r1, r7
    336a:	f7fd fa4f 	bl	80c <__adddf3>
    336e:	b007      	add	sp, #28
    3370:	e8bd 8ff0 	ldmia.w	sp!, {r4, r5, r6, r7, r8, r9, sl, fp, pc}
    3374:	4620      	mov	r0, r4
    3376:	4629      	mov	r1, r5
    3378:	f000 faaa 	bl	38d0 <fabs>
    337c:	4602      	mov	r2, r0
    337e:	460b      	mov	r3, r1
    3380:	2000      	movs	r0, #0
    3382:	4989      	ldr	r1, [pc, #548]	; (35a8 <__ieee754_asin+0x2c8>)
    3384:	f7fd fa40 	bl	808 <__aeabi_dsub>
    3388:	2200      	movs	r2, #0
    338a:	4b88      	ldr	r3, [pc, #544]	; (35ac <__ieee754_asin+0x2cc>)
    338c:	f7fd fbf0 	bl	b70 <__aeabi_dmul>
    3390:	a36d      	add	r3, pc, #436	; (adr r3, 3548 <__ieee754_asin+0x268>)
    3392:	e9d3 2300 	ldrd	r2, r3, [r3]
    3396:	4604      	mov	r4, r0
    3398:	460d      	mov	r5, r1
    339a:	f7fd fbe9 	bl	b70 <__aeabi_dmul>
    339e:	a36c      	add	r3, pc, #432	; (adr r3, 3550 <__ieee754_asin+0x270>)
    33a0:	e9d3 2300 	ldrd	r2, r3, [r3]
    33a4:	f7fd fa32 	bl	80c <__adddf3>
    33a8:	4622      	mov	r2, r4
    33aa:	462b      	mov	r3, r5
    33ac:	f7fd fbe0 	bl	b70 <__aeabi_dmul>
    33b0:	a369      	add	r3, pc, #420	; (adr r3, 3558 <__ieee754_asin+0x278>)
    33b2:	e9d3 2300 	ldrd	r2, r3, [r3]
    33b6:	f7fd fa27 	bl	808 <__aeabi_dsub>
    33ba:	4622      	mov	r2, r4
    33bc:	462b      	mov	r3, r5
    33be:	f7fd fbd7 	bl	b70 <__aeabi_dmul>
    33c2:	a367      	add	r3, pc, #412	; (adr r3, 3560 <__ieee754_asin+0x280>)
    33c4:	e9d3 2300 	ldrd	r2, r3, [r3]
    33c8:	f7fd fa20 	bl	80c <__adddf3>
    33cc:	4622      	mov	r2, r4
    33ce:	462b      	mov	r3, r5
    33d0:	f7fd fbce 	bl	b70 <__aeabi_dmul>
    33d4:	a364      	add	r3, pc, #400	; (adr r3, 3568 <__ieee754_asin+0x288>)
    33d6:	e9d3 2300 	ldrd	r2, r3, [r3]
    33da:	f7fd fa15 	bl	808 <__aeabi_dsub>
    33de:	4622      	mov	r2, r4
    33e0:	462b      	mov	r3, r5
    33e2:	f7fd fbc5 	bl	b70 <__aeabi_dmul>
    33e6:	a362      	add	r3, pc, #392	; (adr r3, 3570 <__ieee754_asin+0x290>)
    33e8:	e9d3 2300 	ldrd	r2, r3, [r3]
    33ec:	f7fd fa0e 	bl	80c <__adddf3>
    33f0:	4622      	mov	r2, r4
    33f2:	462b      	mov	r3, r5
    33f4:	f7fd fbbc 	bl	b70 <__aeabi_dmul>
    33f8:	a35f      	add	r3, pc, #380	; (adr r3, 3578 <__ieee754_asin+0x298>)
    33fa:	e9d3 2300 	ldrd	r2, r3, [r3]
    33fe:	e9cd 0100 	strd	r0, r1, [sp]
    3402:	4620      	mov	r0, r4
    3404:	4629      	mov	r1, r5
    3406:	f7fd fbb3 	bl	b70 <__aeabi_dmul>
    340a:	a35d      	add	r3, pc, #372	; (adr r3, 3580 <__ieee754_asin+0x2a0>)
    340c:	e9d3 2300 	ldrd	r2, r3, [r3]
    3410:	f7fd f9fa 	bl	808 <__aeabi_dsub>
    3414:	4622      	mov	r2, r4
    3416:	462b      	mov	r3, r5
    3418:	f7fd fbaa 	bl	b70 <__aeabi_dmul>
    341c:	a35a      	add	r3, pc, #360	; (adr r3, 3588 <__ieee754_asin+0x2a8>)
    341e:	e9d3 2300 	ldrd	r2, r3, [r3]
    3422:	f7fd f9f3 	bl	80c <__adddf3>
    3426:	4622      	mov	r2, r4
    3428:	462b      	mov	r3, r5
    342a:	f7fd fba1 	bl	b70 <__aeabi_dmul>
    342e:	a358      	add	r3, pc, #352	; (adr r3, 3590 <__ieee754_asin+0x2b0>)
    3430:	e9d3 2300 	ldrd	r2, r3, [r3]
    3434:	f7fd f9e8 	bl	808 <__aeabi_dsub>
    3438:	4622      	mov	r2, r4
    343a:	462b      	mov	r3, r5
    343c:	f7fd fb98 	bl	b70 <__aeabi_dmul>
    3440:	4b59      	ldr	r3, [pc, #356]	; (35a8 <__ieee754_asin+0x2c8>)
    3442:	2200      	movs	r2, #0
    3444:	f7fd f9e2 	bl	80c <__adddf3>
    3448:	e9cd 0102 	strd	r0, r1, [sp, #8]
    344c:	4620      	mov	r0, r4
    344e:	4629      	mov	r1, r5
    3450:	f000 f97e 	bl	3750 <__ieee754_sqrt>
    3454:	4b56      	ldr	r3, [pc, #344]	; (35b0 <__ieee754_asin+0x2d0>)
    3456:	4598      	cmp	r8, r3
    3458:	4682      	mov	sl, r0
    345a:	468b      	mov	fp, r1
    345c:	f300 80aa 	bgt.w	35b4 <__ieee754_asin+0x2d4>
    3460:	4602      	mov	r2, r0
    3462:	460b      	mov	r3, r1
    3464:	f7fd f9d2 	bl	80c <__adddf3>
    3468:	e9dd 2302 	ldrd	r2, r3, [sp, #8]
    346c:	e9cd 0104 	strd	r0, r1, [sp, #16]
    3470:	e9dd 0100 	ldrd	r0, r1, [sp]
    3474:	f7fd fca6 	bl	dc4 <__aeabi_ddiv>
    3478:	4602      	mov	r2, r0
    347a:	460b      	mov	r3, r1
    347c:	e9dd 0104 	ldrd	r0, r1, [sp, #16]
    3480:	f7fd fb76 	bl	b70 <__aeabi_dmul>
    3484:	f04f 0800 	mov.w	r8, #0
    3488:	e9cd 0100 	strd	r0, r1, [sp]
    348c:	4642      	mov	r2, r8
    348e:	465b      	mov	r3, fp
    3490:	4640      	mov	r0, r8
    3492:	4659      	mov	r1, fp
    3494:	f7fd fb6c 	bl	b70 <__aeabi_dmul>
    3498:	4602      	mov	r2, r0
    349a:	460b      	mov	r3, r1
    349c:	4620      	mov	r0, r4
    349e:	4629      	mov	r1, r5
    34a0:	f7fd f9b2 	bl	808 <__aeabi_dsub>
    34a4:	4642      	mov	r2, r8
    34a6:	4604      	mov	r4, r0
    34a8:	460d      	mov	r5, r1
    34aa:	465b      	mov	r3, fp
    34ac:	4650      	mov	r0, sl
    34ae:	4659      	mov	r1, fp
    34b0:	f7fd f9ac 	bl	80c <__adddf3>
    34b4:	4602      	mov	r2, r0
    34b6:	460b      	mov	r3, r1
    34b8:	4620      	mov	r0, r4
    34ba:	4629      	mov	r1, r5
    34bc:	f7fd fc82 	bl	dc4 <__aeabi_ddiv>
    34c0:	4602      	mov	r2, r0
    34c2:	460b      	mov	r3, r1
    34c4:	f7fd f9a2 	bl	80c <__adddf3>
    34c8:	4602      	mov	r2, r0
    34ca:	460b      	mov	r3, r1
    34cc:	a11c      	add	r1, pc, #112	; (adr r1, 3540 <__ieee754_asin+0x260>)
    34ce:	e9d1 0100 	ldrd	r0, r1, [r1]
    34d2:	f7fd f999 	bl	808 <__aeabi_dsub>
    34d6:	4602      	mov	r2, r0
    34d8:	460b      	mov	r3, r1
    34da:	e9dd 0100 	ldrd	r0, r1, [sp]
    34de:	f7fd f993 	bl	808 <__aeabi_dsub>
    34e2:	4642      	mov	r2, r8
    34e4:	4604      	mov	r4, r0
    34e6:	460d      	mov	r5, r1
    34e8:	465b      	mov	r3, fp
    34ea:	4640      	mov	r0, r8
    34ec:	4659      	mov	r1, fp
    34ee:	f7fd f98d 	bl	80c <__adddf3>
    34f2:	4602      	mov	r2, r0
    34f4:	460b      	mov	r3, r1
    34f6:	a128      	add	r1, pc, #160	; (adr r1, 3598 <__ieee754_asin+0x2b8>)
    34f8:	e9d1 0100 	ldrd	r0, r1, [r1]
    34fc:	f7fd f984 	bl	808 <__aeabi_dsub>
    3500:	4602      	mov	r2, r0
    3502:	460b      	mov	r3, r1
    3504:	4620      	mov	r0, r4
    3506:	4629      	mov	r1, r5
    3508:	f7fd f97e 	bl	808 <__aeabi_dsub>
    350c:	4602      	mov	r2, r0
    350e:	460b      	mov	r3, r1
    3510:	a121      	add	r1, pc, #132	; (adr r1, 3598 <__ieee754_asin+0x2b8>)
    3512:	e9d1 0100 	ldrd	r0, r1, [r1]
    3516:	f7fd f977 	bl	808 <__aeabi_dsub>
    351a:	4602      	mov	r2, r0
    351c:	460b      	mov	r3, r1
    351e:	2f00      	cmp	r7, #0
    3520:	f340 80de 	ble.w	36e0 <__ieee754_asin+0x400>
    3524:	4610      	mov	r0, r2
    3526:	4619      	mov	r1, r3
    3528:	b007      	add	sp, #28
    352a:	e8bd 8ff0 	ldmia.w	sp!, {r4, r5, r6, r7, r8, r9, sl, fp, pc}
    352e:	bf00      	nop
    3530:	8800759c 	.word	0x8800759c
    3534:	7e37e43c 	.word	0x7e37e43c
    3538:	54442d18 	.word	0x54442d18
    353c:	3ff921fb 	.word	0x3ff921fb
    3540:	33145c07 	.word	0x33145c07
    3544:	3c91a626 	.word	0x3c91a626
    3548:	0dfdf709 	.word	0x0dfdf709
    354c:	3f023de1 	.word	0x3f023de1
    3550:	7501b288 	.word	0x7501b288
    3554:	3f49efe0 	.word	0x3f49efe0
    3558:	b5688f3b 	.word	0xb5688f3b
    355c:	3fa48228 	.word	0x3fa48228
    3560:	0e884455 	.word	0x0e884455
    3564:	3fc9c155 	.word	0x3fc9c155
    3568:	03eb6f7d 	.word	0x03eb6f7d
    356c:	3fd4d612 	.word	0x3fd4d612
    3570:	55555555 	.word	0x55555555
    3574:	3fc55555 	.word	0x3fc55555
    3578:	b12e9282 	.word	0xb12e9282
    357c:	3fb3b8c5 	.word	0x3fb3b8c5
    3580:	1b8d0159 	.word	0x1b8d0159
    3584:	3fe6066c 	.word	0x3fe6066c
    3588:	9c598ac8 	.word	0x9c598ac8
    358c:	40002ae5 	.word	0x40002ae5
    3590:	1c8a2d4b 	.word	0x1c8a2d4b
    3594:	40033a27 	.word	0x40033a27
    3598:	54442d18 	.word	0x54442d18
    359c:	3fe921fb 	.word	0x3fe921fb
    35a0:	3fefffff 	.word	0x3fefffff
    35a4:	3fdfffff 	.word	0x3fdfffff
    35a8:	3ff00000 	.word	0x3ff00000
    35ac:	3fe00000 	.word	0x3fe00000
    35b0:	3fef3332 	.word	0x3fef3332
    35b4:	e9dd 2302 	ldrd	r2, r3, [sp, #8]
    35b8:	e9dd 0100 	ldrd	r0, r1, [sp]
    35bc:	f7fd fc02 	bl	dc4 <__aeabi_ddiv>
    35c0:	4602      	mov	r2, r0
    35c2:	460b      	mov	r3, r1
    35c4:	4650      	mov	r0, sl
    35c6:	4659      	mov	r1, fp
    35c8:	f7fd fad2 	bl	b70 <__aeabi_dmul>
    35cc:	4652      	mov	r2, sl
    35ce:	465b      	mov	r3, fp
    35d0:	f7fd f91c 	bl	80c <__adddf3>
    35d4:	4602      	mov	r2, r0
    35d6:	460b      	mov	r3, r1
    35d8:	f7fd f918 	bl	80c <__adddf3>
    35dc:	a342      	add	r3, pc, #264	; (adr r3, 36e8 <__ieee754_asin+0x408>)
    35de:	e9d3 2300 	ldrd	r2, r3, [r3]
    35e2:	f7fd f911 	bl	808 <__aeabi_dsub>
    35e6:	4602      	mov	r2, r0
    35e8:	460b      	mov	r3, r1
    35ea:	a141      	add	r1, pc, #260	; (adr r1, 36f0 <__ieee754_asin+0x410>)
    35ec:	e9d1 0100 	ldrd	r0, r1, [r1]
    35f0:	f7fd f90a 	bl	808 <__aeabi_dsub>
    35f4:	4602      	mov	r2, r0
    35f6:	460b      	mov	r3, r1
    35f8:	e791      	b.n	351e <__ieee754_asin+0x23e>
    35fa:	4602      	mov	r2, r0
    35fc:	460b      	mov	r3, r1
    35fe:	f7fd fab7 	bl	b70 <__aeabi_dmul>
    3602:	a33d      	add	r3, pc, #244	; (adr r3, 36f8 <__ieee754_asin+0x418>)
    3604:	e9d3 2300 	ldrd	r2, r3, [r3]
    3608:	4606      	mov	r6, r0
    360a:	460f      	mov	r7, r1
    360c:	f7fd fab0 	bl	b70 <__aeabi_dmul>
    3610:	a33b      	add	r3, pc, #236	; (adr r3, 3700 <__ieee754_asin+0x420>)
    3612:	e9d3 2300 	ldrd	r2, r3, [r3]
    3616:	f7fd f8f9 	bl	80c <__adddf3>
    361a:	4632      	mov	r2, r6
    361c:	463b      	mov	r3, r7
    361e:	f7fd faa7 	bl	b70 <__aeabi_dmul>
    3622:	a339      	add	r3, pc, #228	; (adr r3, 3708 <__ieee754_asin+0x428>)
    3624:	e9d3 2300 	ldrd	r2, r3, [r3]
    3628:	f7fd f8ee 	bl	808 <__aeabi_dsub>
    362c:	4632      	mov	r2, r6
    362e:	463b      	mov	r3, r7
    3630:	f7fd fa9e 	bl	b70 <__aeabi_dmul>
    3634:	a336      	add	r3, pc, #216	; (adr r3, 3710 <__ieee754_asin+0x430>)
    3636:	e9d3 2300 	ldrd	r2, r3, [r3]
    363a:	f7fd f8e7 	bl	80c <__adddf3>
    363e:	4632      	mov	r2, r6
    3640:	463b      	mov	r3, r7
    3642:	f7fd fa95 	bl	b70 <__aeabi_dmul>
    3646:	a334      	add	r3, pc, #208	; (adr r3, 3718 <__ieee754_asin+0x438>)
    3648:	e9d3 2300 	ldrd	r2, r3, [r3]
    364c:	f7fd f8dc 	bl	808 <__aeabi_dsub>
    3650:	4632      	mov	r2, r6
    3652:	463b      	mov	r3, r7
    3654:	f7fd fa8c 	bl	b70 <__aeabi_dmul>
    3658:	a331      	add	r3, pc, #196	; (adr r3, 3720 <__ieee754_asin+0x440>)
    365a:	e9d3 2300 	ldrd	r2, r3, [r3]
    365e:	f7fd f8d5 	bl	80c <__adddf3>
    3662:	4632      	mov	r2, r6
    3664:	463b      	mov	r3, r7
    3666:	f7fd fa83 	bl	b70 <__aeabi_dmul>
    366a:	a32f      	add	r3, pc, #188	; (adr r3, 3728 <__ieee754_asin+0x448>)
    366c:	e9d3 2300 	ldrd	r2, r3, [r3]
    3670:	4680      	mov	r8, r0
    3672:	4689      	mov	r9, r1
    3674:	4630      	mov	r0, r6
    3676:	4639      	mov	r1, r7
    3678:	f7fd fa7a 	bl	b70 <__aeabi_dmul>
    367c:	a32c      	add	r3, pc, #176	; (adr r3, 3730 <__ieee754_asin+0x450>)
    367e:	e9d3 2300 	ldrd	r2, r3, [r3]
    3682:	f7fd f8c1 	bl	808 <__aeabi_dsub>
    3686:	4632      	mov	r2, r6
    3688:	463b      	mov	r3, r7
    368a:	f7fd fa71 	bl	b70 <__aeabi_dmul>
    368e:	a32a      	add	r3, pc, #168	; (adr r3, 3738 <__ieee754_asin+0x458>)
    3690:	e9d3 2300 	ldrd	r2, r3, [r3]
    3694:	f7fd f8ba 	bl	80c <__adddf3>
    3698:	4632      	mov	r2, r6
    369a:	463b      	mov	r3, r7
    369c:	f7fd fa68 	bl	b70 <__aeabi_dmul>
    36a0:	a327      	add	r3, pc, #156	; (adr r3, 3740 <__ieee754_asin+0x460>)
    36a2:	e9d3 2300 	ldrd	r2, r3, [r3]
    36a6:	f7fd f8af 	bl	808 <__aeabi_dsub>
    36aa:	4632      	mov	r2, r6
    36ac:	463b      	mov	r3, r7
    36ae:	f7fd fa5f 	bl	b70 <__aeabi_dmul>
    36b2:	2200      	movs	r2, #0
    36b4:	4b24      	ldr	r3, [pc, #144]	; (3748 <__ieee754_asin+0x468>)
    36b6:	f7fd f8a9 	bl	80c <__adddf3>
    36ba:	4602      	mov	r2, r0
    36bc:	460b      	mov	r3, r1
    36be:	4640      	mov	r0, r8
    36c0:	4649      	mov	r1, r9
    36c2:	f7fd fb7f 	bl	dc4 <__aeabi_ddiv>
    36c6:	4602      	mov	r2, r0
    36c8:	460b      	mov	r3, r1
    36ca:	4620      	mov	r0, r4
    36cc:	4629      	mov	r1, r5
    36ce:	f7fd fa4f 	bl	b70 <__aeabi_dmul>
    36d2:	4622      	mov	r2, r4
    36d4:	462b      	mov	r3, r5
    36d6:	f7fd f899 	bl	80c <__adddf3>
    36da:	b007      	add	sp, #28
    36dc:	e8bd 8ff0 	ldmia.w	sp!, {r4, r5, r6, r7, r8, r9, sl, fp, pc}
    36e0:	4610      	mov	r0, r2
    36e2:	f103 4100 	add.w	r1, r3, #2147483648	; 0x80000000
    36e6:	e615      	b.n	3314 <__ieee754_asin+0x34>
    36e8:	33145c07 	.word	0x33145c07
    36ec:	3c91a626 	.word	0x3c91a626
    36f0:	54442d18 	.word	0x54442d18
    36f4:	3ff921fb 	.word	0x3ff921fb
    36f8:	0dfdf709 	.word	0x0dfdf709
    36fc:	3f023de1 	.word	0x3f023de1
    3700:	7501b288 	.word	0x7501b288
    3704:	3f49efe0 	.word	0x3f49efe0
    3708:	b5688f3b 	.word	0xb5688f3b
    370c:	3fa48228 	.word	0x3fa48228
    3710:	0e884455 	.word	0x0e884455
    3714:	3fc9c155 	.word	0x3fc9c155
    3718:	03eb6f7d 	.word	0x03eb6f7d
    371c:	3fd4d612 	.word	0x3fd4d612
    3720:	55555555 	.word	0x55555555
    3724:	3fc55555 	.word	0x3fc55555
    3728:	b12e9282 	.word	0xb12e9282
    372c:	3fb3b8c5 	.word	0x3fb3b8c5
    3730:	1b8d0159 	.word	0x1b8d0159
    3734:	3fe6066c 	.word	0x3fe6066c
    3738:	9c598ac8 	.word	0x9c598ac8
    373c:	40002ae5 	.word	0x40002ae5
    3740:	1c8a2d4b 	.word	0x1c8a2d4b
    3744:	40033a27 	.word	0x40033a27
    3748:	3ff00000 	.word	0x3ff00000
$t():
    374c:	f3af 8000 	nop.w

00003750 <__ieee754_sqrt>:
__ieee754_sqrt():
    3750:	f021 4c00 	bic.w	ip, r1, #2147483648	; 0x80000000
    3754:	e92d 43f8 	stmdb	sp!, {r3, r4, r5, r6, r7, r8, r9, lr}
    3758:	ea4f 5c1c 	mov.w	ip, ip, lsr #20
    375c:	f8df 816c 	ldr.w	r8, [pc, #364]	; 38cc <__ieee754_sqrt+0x17c>
    3760:	ea4f 5c0c 	mov.w	ip, ip, lsl #20
    3764:	45c4      	cmp	ip, r8
    3766:	4606      	mov	r6, r0
    3768:	460f      	mov	r7, r1
    376a:	460b      	mov	r3, r1
    376c:	4602      	mov	r2, r0
    376e:	f000 808f 	beq.w	3890 <__ieee754_sqrt+0x140>
    3772:	2900      	cmp	r1, #0
    3774:	dd6f      	ble.n	3856 <__ieee754_sqrt+0x106>
    3776:	150f      	asrs	r7, r1, #20
    3778:	d078      	beq.n	386c <__ieee754_sqrt+0x11c>
    377a:	f2a7 37ff 	subw	r7, r7, #1023	; 0x3ff
    377e:	f3c3 0313 	ubfx	r3, r3, #0, #20
    3782:	07f9      	lsls	r1, r7, #31
    3784:	f443 1380 	orr.w	r3, r3, #1048576	; 0x100000
    3788:	d460      	bmi.n	384c <__ieee754_sqrt+0xfc>
    378a:	0fd1      	lsrs	r1, r2, #31
    378c:	f04f 0c00 	mov.w	ip, #0
    3790:	eb01 0343 	add.w	r3, r1, r3, lsl #1
    3794:	107f      	asrs	r7, r7, #1
    3796:	0052      	lsls	r2, r2, #1
    3798:	4665      	mov	r5, ip
    379a:	2016      	movs	r0, #22
    379c:	f44f 1100 	mov.w	r1, #2097152	; 0x200000
    37a0:	186c      	adds	r4, r5, r1
    37a2:	429c      	cmp	r4, r3
    37a4:	ea4f 76d2 	mov.w	r6, r2, lsr #31
    37a8:	ea4f 0242 	mov.w	r2, r2, lsl #1
    37ac:	dc02      	bgt.n	37b4 <__ieee754_sqrt+0x64>
    37ae:	1b1b      	subs	r3, r3, r4
    37b0:	1865      	adds	r5, r4, r1
    37b2:	448c      	add	ip, r1
    37b4:	3801      	subs	r0, #1
    37b6:	eb06 0343 	add.w	r3, r6, r3, lsl #1
    37ba:	ea4f 0151 	mov.w	r1, r1, lsr #1
    37be:	d1ef      	bne.n	37a0 <__ieee754_sqrt+0x50>
    37c0:	4680      	mov	r8, r0
    37c2:	2620      	movs	r6, #32
    37c4:	f04f 4100 	mov.w	r1, #2147483648	; 0x80000000
    37c8:	e009      	b.n	37de <__ieee754_sqrt+0x8e>
    37ca:	d023      	beq.n	3814 <__ieee754_sqrt+0xc4>
    37cc:	0fd4      	lsrs	r4, r2, #31
    37ce:	3e01      	subs	r6, #1
    37d0:	ea4f 0151 	mov.w	r1, r1, lsr #1
    37d4:	eb04 0343 	add.w	r3, r4, r3, lsl #1
    37d8:	ea4f 0242 	mov.w	r2, r2, lsl #1
    37dc:	d01e      	beq.n	381c <__ieee754_sqrt+0xcc>
    37de:	42ab      	cmp	r3, r5
    37e0:	eb01 0408 	add.w	r4, r1, r8
    37e4:	ddf1      	ble.n	37ca <__ieee754_sqrt+0x7a>
    37e6:	f004 4900 	and.w	r9, r4, #2147483648	; 0x80000000
    37ea:	f1b9 4f00 	cmp.w	r9, #2147483648	; 0x80000000
    37ee:	eb04 0801 	add.w	r8, r4, r1
    37f2:	d009      	beq.n	3808 <__ieee754_sqrt+0xb8>
    37f4:	46a9      	mov	r9, r5
    37f6:	1b5b      	subs	r3, r3, r5
    37f8:	4294      	cmp	r4, r2
    37fa:	bf88      	it	hi
    37fc:	f103 33ff 	addhi.w	r3, r3, #4294967295
    3800:	1b12      	subs	r2, r2, r4
    3802:	4408      	add	r0, r1
    3804:	464d      	mov	r5, r9
    3806:	e7e1      	b.n	37cc <__ieee754_sqrt+0x7c>
    3808:	f1b8 0f00 	cmp.w	r8, #0
    380c:	dbf2      	blt.n	37f4 <__ieee754_sqrt+0xa4>
    380e:	f105 0901 	add.w	r9, r5, #1
    3812:	e7f0      	b.n	37f6 <__ieee754_sqrt+0xa6>
    3814:	4294      	cmp	r4, r2
    3816:	d9e6      	bls.n	37e6 <__ieee754_sqrt+0x96>
    3818:	461d      	mov	r5, r3
    381a:	e7d7      	b.n	37cc <__ieee754_sqrt+0x7c>
    381c:	431a      	orrs	r2, r3
    381e:	d004      	beq.n	382a <__ieee754_sqrt+0xda>
    3820:	1c43      	adds	r3, r0, #1
    3822:	d041      	beq.n	38a8 <__ieee754_sqrt+0x158>
    3824:	f000 0301 	and.w	r3, r0, #1
    3828:	4418      	add	r0, r3
    382a:	0846      	lsrs	r6, r0, #1
    382c:	ea4f 036c 	mov.w	r3, ip, asr #1
    3830:	f01c 0f01 	tst.w	ip, #1
    3834:	f103 537f 	add.w	r3, r3, #1069547520	; 0x3fc00000
    3838:	f503 1300 	add.w	r3, r3, #2097152	; 0x200000
    383c:	bf18      	it	ne
    383e:	f046 4600 	orrne.w	r6, r6, #2147483648	; 0x80000000
    3842:	eb03 5107 	add.w	r1, r3, r7, lsl #20
    3846:	4630      	mov	r0, r6
    3848:	e8bd 83f8 	ldmia.w	sp!, {r3, r4, r5, r6, r7, r8, r9, pc}
    384c:	0fd1      	lsrs	r1, r2, #31
    384e:	eb01 0343 	add.w	r3, r1, r3, lsl #1
    3852:	0052      	lsls	r2, r2, #1
    3854:	e799      	b.n	378a <__ieee754_sqrt+0x3a>
    3856:	f021 4300 	bic.w	r3, r1, #2147483648	; 0x80000000
    385a:	4303      	orrs	r3, r0
    385c:	d022      	beq.n	38a4 <__ieee754_sqrt+0x154>
    385e:	bb51      	cbnz	r1, 38b6 <__ieee754_sqrt+0x166>
    3860:	460f      	mov	r7, r1
    3862:	0ad3      	lsrs	r3, r2, #11
    3864:	3f15      	subs	r7, #21
    3866:	0552      	lsls	r2, r2, #21
    3868:	2b00      	cmp	r3, #0
    386a:	d0fa      	beq.n	3862 <__ieee754_sqrt+0x112>
    386c:	f413 1180 	ands.w	r1, r3, #1048576	; 0x100000
    3870:	d11d      	bne.n	38ae <__ieee754_sqrt+0x15e>
    3872:	005b      	lsls	r3, r3, #1
    3874:	02d8      	lsls	r0, r3, #11
    3876:	f101 0101 	add.w	r1, r1, #1
    387a:	d5fa      	bpl.n	3872 <__ieee754_sqrt+0x122>
    387c:	f1c1 0001 	rsb	r0, r1, #1
    3880:	f1c1 0420 	rsb	r4, r1, #32
    3884:	fa22 f404 	lsr.w	r4, r2, r4
    3888:	4323      	orrs	r3, r4
    388a:	4407      	add	r7, r0
    388c:	408a      	lsls	r2, r1
    388e:	e774      	b.n	377a <__ieee754_sqrt+0x2a>
    3890:	4602      	mov	r2, r0
    3892:	460b      	mov	r3, r1
    3894:	f7fd f96c 	bl	b70 <__aeabi_dmul>
    3898:	4632      	mov	r2, r6
    389a:	463b      	mov	r3, r7
    389c:	f7fc ffb6 	bl	80c <__adddf3>
    38a0:	e8bd 83f8 	ldmia.w	sp!, {r3, r4, r5, r6, r7, r8, r9, pc}
    38a4:	e8bd 83f8 	ldmia.w	sp!, {r3, r4, r5, r6, r7, r8, r9, pc}
    38a8:	f10c 0c01 	add.w	ip, ip, #1
    38ac:	e7be      	b.n	382c <__ieee754_sqrt+0xdc>
    38ae:	2420      	movs	r4, #32
    38b0:	2001      	movs	r0, #1
    38b2:	2100      	movs	r1, #0
    38b4:	e7e6      	b.n	3884 <__ieee754_sqrt+0x134>
    38b6:	4602      	mov	r2, r0
    38b8:	460b      	mov	r3, r1
    38ba:	f7fc ffa5 	bl	808 <__aeabi_dsub>
    38be:	4602      	mov	r2, r0
    38c0:	460b      	mov	r3, r1
    38c2:	f7fd fa7f 	bl	dc4 <__aeabi_ddiv>
    38c6:	e8bd 83f8 	ldmia.w	sp!, {r3, r4, r5, r6, r7, r8, r9, pc}
    38ca:	bf00      	nop
    38cc:	7ff00000 	.word	0x7ff00000

000038d0 <fabs>:
fabs():
    38d0:	f021 4100 	bic.w	r1, r1, #2147483648	; 0x80000000
    38d4:	4770      	bx	lr
    38d6:	bf00      	nop

000038d8 <__fpclassifyd>:
__fpclassifyd():
    38d8:	f031 4300 	bics.w	r3, r1, #2147483648	; 0x80000000
    38dc:	b410      	push	{r4}
    38de:	d008      	beq.n	38f2 <__fpclassifyd+0x1a>
    38e0:	4a0f      	ldr	r2, [pc, #60]	; (3920 <__fpclassifyd+0x48>)
    38e2:	f5a3 1480 	sub.w	r4, r3, #1048576	; 0x100000
    38e6:	4294      	cmp	r4, r2
    38e8:	d80a      	bhi.n	3900 <__fpclassifyd+0x28>
    38ea:	2004      	movs	r0, #4
    38ec:	f85d 4b04 	ldr.w	r4, [sp], #4
    38f0:	4770      	bx	lr
    38f2:	2800      	cmp	r0, #0
    38f4:	bf0c      	ite	eq
    38f6:	2002      	moveq	r0, #2
    38f8:	2003      	movne	r0, #3
    38fa:	f85d 4b04 	ldr.w	r4, [sp], #4
    38fe:	4770      	bx	lr
    3900:	f5b3 1f80 	cmp.w	r3, #1048576	; 0x100000
    3904:	d201      	bcs.n	390a <__fpclassifyd+0x32>
    3906:	2003      	movs	r0, #3
    3908:	e7f7      	b.n	38fa <__fpclassifyd+0x22>
    390a:	4a06      	ldr	r2, [pc, #24]	; (3924 <__fpclassifyd+0x4c>)
    390c:	4293      	cmp	r3, r2
    390e:	d001      	beq.n	3914 <__fpclassifyd+0x3c>
    3910:	2000      	movs	r0, #0
    3912:	e7f2      	b.n	38fa <__fpclassifyd+0x22>
    3914:	f1d0 0001 	rsbs	r0, r0, #1
    3918:	bf38      	it	cc
    391a:	2000      	movcc	r0, #0
    391c:	e7ed      	b.n	38fa <__fpclassifyd+0x22>
    391e:	bf00      	nop
    3920:	7fdfffff 	.word	0x7fdfffff
    3924:	7ff00000 	.word	0x7ff00000

00003928 <matherr>:
matherr():
    3928:	2000      	movs	r0, #0
    392a:	4770      	bx	lr

0000392c <nan>:
nan():
    392c:	2000      	movs	r0, #0
    392e:	4901      	ldr	r1, [pc, #4]	; (3934 <nan+0x8>)
    3930:	4770      	bx	lr
    3932:	bf00      	nop
    3934:	7ff80000 	.word	0x7ff80000

00003938 <__errno>:
__errno():
    3938:	4b01      	ldr	r3, [pc, #4]	; (3940 <__errno+0x8>)
    393a:	6818      	ldr	r0, [r3, #0]
    393c:	4770      	bx	lr
    393e:	bf00      	nop
    3940:	1fff0088 	.word	0x1fff0088

00003944 <exit>:
exit():
    3944:	b508      	push	{r3, lr}
    3946:	4b07      	ldr	r3, [pc, #28]	; (3964 <exit+0x20>)
    3948:	4604      	mov	r4, r0
    394a:	b113      	cbz	r3, 3952 <exit+0xe>
    394c:	2100      	movs	r1, #0
    394e:	f3af 8000 	nop.w
    3952:	4b05      	ldr	r3, [pc, #20]	; (3968 <exit+0x24>)
    3954:	6818      	ldr	r0, [r3, #0]
    3956:	6a83      	ldr	r3, [r0, #40]	; 0x28
    3958:	b103      	cbz	r3, 395c <exit+0x18>
    395a:	4798      	blx	r3
    395c:	4620      	mov	r0, r4
    395e:	f000 f80d 	bl	397c <_exit>
    3962:	bf00      	nop
    3964:	00000000 	.word	0x00000000
    3968:	000039d4 	.word	0x000039d4

0000396c <memset>:
memset():
    396c:	4402      	add	r2, r0
    396e:	4603      	mov	r3, r0
    3970:	4293      	cmp	r3, r2
    3972:	d002      	beq.n	397a <memset+0xe>
    3974:	f803 1b01 	strb.w	r1, [r3], #1
    3978:	e7fa      	b.n	3970 <memset+0x4>
    397a:	4770      	bx	lr

0000397c <_exit>:
_exit():
    397c:	e7fe      	b.n	397c <_exit>
    397e:	bf00      	nop

00003980 <UART_ARR>:
$d():
    3980:	a000 4006 b000 4006 c000 4006 d000 4006     ...@...@...@...@
    3990:	a000 400e b000 400e                         ...@...@

00003998 <table_irq_uart>:
    3998:	2f2d 3331 3735 0000                         -/1357..

000039a0 <PORT_ARR>:
    39a0:	9000 4004 a000 4004 b000 4004 c000 4004     ...@...@...@...@
    39b0:	d000 4004                                   ...@

000039b4 <GPIO_ARR>:
    39b4:	f000 400f f040 400f f080 400f f0c0 400f     ...@@..@...@...@
    39c4:	f100 400f 7361 6e69 0000 0000 0043 0000     ...@asin....C...

000039d4 <_global_impure_ptr>:
    39d4:	0028 1fff                                   (...
